Archive member included because of file (symbol)

/home/user/ti-ezsdk_dm816x-evm_5_05_01_04/component-sources/syslink_2_20_00_14/packages/ti/syslink/lib/syslink.a_release(SharedRegion.o)
                              bin/release/obj/App.ov5T (SharedRegion_getSRPtr)
/home/user/ti-ezsdk_dm816x-evm_5_05_01_04/component-sources/syslink_2_20_00_14/packages/ti/syslink/lib/syslink.a_release(Notify.o)
                              bin/release/obj/App.ov5T (Notify_sendEvent)
/home/user/ti-ezsdk_dm816x-evm_5_05_01_04/component-sources/syslink_2_20_00_14/packages/ti/syslink/lib/syslink.a_release(Ipc.o)
                              bin/release/obj/main_host.ov5T (Ipc_control)
/home/user/ti-ezsdk_dm816x-evm_5_05_01_04/component-sources/syslink_2_20_00_14/packages/ti/syslink/lib/syslink.a_release(RingIO.o)
                              /home/user/ti-ezsdk_dm816x-evm_5_05_01_04/component-sources/syslink_2_20_00_14/packages/ti/syslink/lib/syslink.a_release(Ipc.o) (RingIO_destroy)
/home/user/ti-ezsdk_dm816x-evm_5_05_01_04/component-sources/syslink_2_20_00_14/packages/ti/syslink/lib/syslink.a_release(RingIOShm.o)
                              /home/user/ti-ezsdk_dm816x-evm_5_05_01_04/component-sources/syslink_2_20_00_14/packages/ti/syslink/lib/syslink.a_release(Ipc.o) (RingIOShm_destroy)
/home/user/ti-ezsdk_dm816x-evm_5_05_01_04/component-sources/syslink_2_20_00_14/packages/ti/syslink/lib/syslink.a_release(FrameQ.o)
                              /home/user/ti-ezsdk_dm816x-evm_5_05_01_04/component-sources/syslink_2_20_00_14/packages/ti/syslink/lib/syslink.a_release(Ipc.o) (FrameQ_destroy)
/home/user/ti-ezsdk_dm816x-evm_5_05_01_04/component-sources/syslink_2_20_00_14/packages/ti/syslink/lib/syslink.a_release(FrameQBufMgr.o)
                              /home/user/ti-ezsdk_dm816x-evm_5_05_01_04/component-sources/syslink_2_20_00_14/packages/ti/syslink/lib/syslink.a_release(FrameQ.o) (FrameQBufMgr_getHandle)
/home/user/ti-ezsdk_dm816x-evm_5_05_01_04/component-sources/syslink_2_20_00_14/packages/ti/syslink/lib/syslink.a_release(ClientNotifyMgr.o)
                              /home/user/ti-ezsdk_dm816x-evm_5_05_01_04/component-sources/syslink_2_20_00_14/packages/ti/syslink/lib/syslink.a_release(RingIO.o) (ClientNotifyMgr_sendForceNotificationMulti)
/home/user/ti-ezsdk_dm816x-evm_5_05_01_04/component-sources/syslink_2_20_00_14/packages/ti/syslink/lib/syslink.a_release(HeapMemMP.o)
                              /home/user/ti-ezsdk_dm816x-evm_5_05_01_04/component-sources/syslink_2_20_00_14/packages/ti/syslink/lib/syslink.a_release(Ipc.o) (HeapMemMP_destroy)
/home/user/ti-ezsdk_dm816x-evm_5_05_01_04/component-sources/syslink_2_20_00_14/packages/ti/syslink/lib/syslink.a_release(HeapBufMP.o)
                              /home/user/ti-ezsdk_dm816x-evm_5_05_01_04/component-sources/syslink_2_20_00_14/packages/ti/syslink/lib/syslink.a_release(Ipc.o) (HeapBufMP_destroy)
/home/user/ti-ezsdk_dm816x-evm_5_05_01_04/component-sources/syslink_2_20_00_14/packages/ti/syslink/lib/syslink.a_release(GateMP.o)
                              /home/user/ti-ezsdk_dm816x-evm_5_05_01_04/component-sources/syslink_2_20_00_14/packages/ti/syslink/lib/syslink.a_release(RingIO.o) (GateMP_getKnlHandle)
/home/user/ti-ezsdk_dm816x-evm_5_05_01_04/component-sources/syslink_2_20_00_14/packages/ti/syslink/lib/syslink.a_release(SharedRegionDrv.o)
                              /home/user/ti-ezsdk_dm816x-evm_5_05_01_04/component-sources/syslink_2_20_00_14/packages/ti/syslink/lib/syslink.a_release(SharedRegion.o) (SharedRegionDrv_ioctl)
/home/user/ti-ezsdk_dm816x-evm_5_05_01_04/component-sources/syslink_2_20_00_14/packages/ti/syslink/lib/syslink.a_release(NotifyDrvUsr.o)
                              /home/user/ti-ezsdk_dm816x-evm_5_05_01_04/component-sources/syslink_2_20_00_14/packages/ti/syslink/lib/syslink.a_release(Notify.o) (NotifyDrvUsr_ioctl)
/home/user/ti-ezsdk_dm816x-evm_5_05_01_04/component-sources/syslink_2_20_00_14/packages/ti/syslink/lib/syslink.a_release(HeapBufMPDrv.o)
                              /home/user/ti-ezsdk_dm816x-evm_5_05_01_04/component-sources/syslink_2_20_00_14/packages/ti/syslink/lib/syslink.a_release(HeapBufMP.o) (HeapBufMPDrv_ioctl)
/home/user/ti-ezsdk_dm816x-evm_5_05_01_04/component-sources/syslink_2_20_00_14/packages/ti/syslink/lib/syslink.a_release(IpcDrv.o)
                              /home/user/ti-ezsdk_dm816x-evm_5_05_01_04/component-sources/syslink_2_20_00_14/packages/ti/syslink/lib/syslink.a_release(Ipc.o) (IpcDrv_ioctl)
/home/user/ti-ezsdk_dm816x-evm_5_05_01_04/component-sources/syslink_2_20_00_14/packages/ti/syslink/lib/syslink.a_release(FrameQDrv.o)
                              /home/user/ti-ezsdk_dm816x-evm_5_05_01_04/component-sources/syslink_2_20_00_14/packages/ti/syslink/lib/syslink.a_release(FrameQ.o) (FrameQDrv_ioctl)
/home/user/ti-ezsdk_dm816x-evm_5_05_01_04/component-sources/syslink_2_20_00_14/packages/ti/syslink/lib/syslink.a_release(FrameQBufMgrDrv.o)
                              /home/user/ti-ezsdk_dm816x-evm_5_05_01_04/component-sources/syslink_2_20_00_14/packages/ti/syslink/lib/syslink.a_release(FrameQBufMgr.o) (FrameQBufMgrDrv_ioctl)
/home/user/ti-ezsdk_dm816x-evm_5_05_01_04/component-sources/syslink_2_20_00_14/packages/ti/syslink/lib/syslink.a_release(ClientNotifyMgrDrv.o)
                              /home/user/ti-ezsdk_dm816x-evm_5_05_01_04/component-sources/syslink_2_20_00_14/packages/ti/syslink/lib/syslink.a_release(ClientNotifyMgr.o) (ClientNotifyMgrDrv_ioctl)
/home/user/ti-ezsdk_dm816x-evm_5_05_01_04/component-sources/syslink_2_20_00_14/packages/ti/syslink/lib/syslink.a_release(RingIODrv.o)
                              /home/user/ti-ezsdk_dm816x-evm_5_05_01_04/component-sources/syslink_2_20_00_14/packages/ti/syslink/lib/syslink.a_release(RingIO.o) (RingIODrv_ioctl)
/home/user/ti-ezsdk_dm816x-evm_5_05_01_04/component-sources/syslink_2_20_00_14/packages/ti/syslink/lib/syslink.a_release(RingIOShmDrv.o)
                              /home/user/ti-ezsdk_dm816x-evm_5_05_01_04/component-sources/syslink_2_20_00_14/packages/ti/syslink/lib/syslink.a_release(RingIOShm.o) (RingIOShmDrv_ioctl)
/home/user/ti-ezsdk_dm816x-evm_5_05_01_04/component-sources/syslink_2_20_00_14/packages/ti/syslink/lib/syslink.a_release(HeapMemMPDrv.o)
                              /home/user/ti-ezsdk_dm816x-evm_5_05_01_04/component-sources/syslink_2_20_00_14/packages/ti/syslink/lib/syslink.a_release(HeapMemMP.o) (HeapMemMPDrv_ioctl)
/home/user/ti-ezsdk_dm816x-evm_5_05_01_04/component-sources/syslink_2_20_00_14/packages/ti/syslink/lib/syslink.a_release(GateMPDrv.o)
                              /home/user/ti-ezsdk_dm816x-evm_5_05_01_04/component-sources/syslink_2_20_00_14/packages/ti/syslink/lib/syslink.a_release(GateMP.o) (GateMPDrv_ioctl)
/home/user/ti-ezsdk_dm816x-evm_5_05_01_04/component-sources/syslink_2_20_00_14/packages/ti/syslink/lib/syslink.a_release(OsalProcess.o)
                              /home/user/ti-ezsdk_dm816x-evm_5_05_01_04/component-sources/syslink_2_20_00_14/packages/ti/syslink/lib/syslink.a_release(Ipc.o) (OsalProcess_getPid)
/home/user/ti-ezsdk_dm816x-evm_5_05_01_04/component-sources/syslink_2_20_00_14/packages/ti/syslink/lib/syslink.a_release(GateMutex.o)
                              /home/user/ti-ezsdk_dm816x-evm_5_05_01_04/component-sources/syslink_2_20_00_14/packages/ti/syslink/lib/syslink.a_release(SharedRegion.o) (GateMutex_create)
/home/user/ti-ezsdk_dm816x-evm_5_05_01_04/component-sources/syslink_2_20_00_14/packages/ti/syslink/lib/syslink.a_release(Memory.o)
                              /home/user/ti-ezsdk_dm816x-evm_5_05_01_04/component-sources/syslink_2_20_00_14/packages/ti/syslink/lib/syslink.a_release(SharedRegion.o) (Memory_getMaxDefaultTypeAlign)
/home/user/ti-ezsdk_dm816x-evm_5_05_01_04/component-sources/syslink_2_20_00_14/packages/ti/syslink/lib/syslink.a_release(List.o)
                              /home/user/ti-ezsdk_dm816x-evm_5_05_01_04/component-sources/syslink_2_20_00_14/packages/ti/syslink/lib/syslink.a_release(FrameQ.o) (List_remove)
/home/user/ti-ezsdk_dm816x-evm_5_05_01_04/component-sources/syslink_2_20_00_14/packages/ti/syslink/lib/syslink.a_release(String.o)
                              /home/user/ti-ezsdk_dm816x-evm_5_05_01_04/component-sources/syslink_2_20_00_14/packages/ti/syslink/lib/syslink.a_release(SharedRegion.o) (String_cmp)
/home/user/ti-ezsdk_dm816x-evm_5_05_01_04/component-sources/syslink_2_20_00_14/packages/ti/syslink/lib/syslink.a_release(Trace.o)
                              /home/user/ti-ezsdk_dm816x-evm_5_05_01_04/component-sources/syslink_2_20_00_14/packages/ti/syslink/lib/syslink.a_release(SharedRegion.o) (_GT_setFailureReason)
/home/user/ti-ezsdk_dm816x-evm_5_05_01_04/component-sources/syslink_2_20_00_14/packages/ti/syslink/lib/syslink.a_release(NameServer.o)
                              /home/user/ti-ezsdk_dm816x-evm_5_05_01_04/component-sources/syslink_2_20_00_14/packages/ti/syslink/lib/syslink.a_release(FrameQ.o) (NameServer_getHandle)
/home/user/ti-ezsdk_dm816x-evm_5_05_01_04/component-sources/syslink_2_20_00_14/packages/ti/syslink/lib/syslink.a_release(MultiProc.o)
                              /home/user/ti-ezsdk_dm816x-evm_5_05_01_04/component-sources/syslink_2_20_00_14/packages/ti/syslink/lib/syslink.a_release(SharedRegion.o) (MultiProc_self)
/home/user/ti-ezsdk_dm816x-evm_5_05_01_04/component-sources/syslink_2_20_00_14/packages/ti/syslink/lib/syslink.a_release(Gate.o)
                              /home/user/ti-ezsdk_dm816x-evm_5_05_01_04/component-sources/syslink_2_20_00_14/packages/ti/syslink/lib/syslink.a_release(FrameQ.o) (Gate_leaveSystem)
/home/user/ti-ezsdk_dm816x-evm_5_05_01_04/component-sources/syslink_2_20_00_14/packages/ti/syslink/lib/syslink.a_release(SysLink.o)
                              bin/release/obj/main_host.ov5T (SysLink_destroy)
/home/user/ti-ezsdk_dm816x-evm_5_05_01_04/component-sources/syslink_2_20_00_14/packages/ti/syslink/lib/syslink.a_release(Cache.o)
                              /home/user/ti-ezsdk_dm816x-evm_5_05_01_04/component-sources/syslink_2_20_00_14/packages/ti/syslink/lib/syslink.a_release(FrameQBufMgr.o) (Cache_wbInv)
/home/user/ti-ezsdk_dm816x-evm_5_05_01_04/component-sources/syslink_2_20_00_14/packages/ti/syslink/lib/syslink.a_release(NameServerDrv.o)
                              /home/user/ti-ezsdk_dm816x-evm_5_05_01_04/component-sources/syslink_2_20_00_14/packages/ti/syslink/lib/syslink.a_release(NameServer.o) (NameServerDrv_ioctl)
/home/user/ti-ezsdk_dm816x-evm_5_05_01_04/component-sources/syslink_2_20_00_14/packages/ti/syslink/lib/syslink.a_release(MultiProcDrv.o)
                              /home/user/ti-ezsdk_dm816x-evm_5_05_01_04/component-sources/syslink_2_20_00_14/packages/ti/syslink/lib/syslink.a_release(MultiProc.o) (MultiProcDrv_ioctl)
/home/user/ti-ezsdk_dm816x-evm_5_05_01_04/component-sources/syslink_2_20_00_14/packages/ti/syslink/lib/syslink.a_release(TraceDrv.o)
                              /home/user/ti-ezsdk_dm816x-evm_5_05_01_04/component-sources/syslink_2_20_00_14/packages/ti/syslink/lib/syslink.a_release(Trace.o) (TraceDrv_ioctl)
/home/user/ti-ezsdk_dm816x-evm_5_05_01_04/component-sources/syslink_2_20_00_14/packages/ti/syslink/lib/syslink.a_release(CacheDrv.o)
                              /home/user/ti-ezsdk_dm816x-evm_5_05_01_04/component-sources/syslink_2_20_00_14/packages/ti/syslink/lib/syslink.a_release(Cache.o) (CacheDrv_ioctl)
/home/user/ti-ezsdk_dm816x-evm_5_05_01_04/component-sources/syslink_2_20_00_14/packages/ti/syslink/lib/syslink.a_release(MemoryOS.o)
                              /home/user/ti-ezsdk_dm816x-evm_5_05_01_04/component-sources/syslink_2_20_00_14/packages/ti/syslink/lib/syslink.a_release(Memory.o) (MemoryOS_free)
/home/user/ti-ezsdk_dm816x-evm_5_05_01_04/component-sources/syslink_2_20_00_14/packages/ti/syslink/lib/syslink.a_release(OsalDrv.o)
                              /home/user/ti-ezsdk_dm816x-evm_5_05_01_04/component-sources/syslink_2_20_00_14/packages/ti/syslink/lib/syslink.a_release(TraceDrv.o) (OsalDrv_ioctl)
/home/user/ti-ezsdk_dm816x-evm_5_05_01_04/component-sources/syslink_2_20_00_14/packages/ti/syslink/lib/syslink.a_release(OsalMutex.o)
                              /home/user/ti-ezsdk_dm816x-evm_5_05_01_04/component-sources/syslink_2_20_00_14/packages/ti/syslink/lib/syslink.a_release(GateMutex.o) (OsalMutex_leave)
/home/user/ti-ezsdk_dm816x-evm_5_05_01_04/component-sources/syslink_2_20_00_14/packages/ti/syslink/lib/syslink.a_release(OsalPrint.o)
                              /home/user/ti-ezsdk_dm816x-evm_5_05_01_04/component-sources/syslink_2_20_00_14/packages/ti/syslink/lib/syslink.a_release(SharedRegion.o) (Osal_printf)
/home/user/ti-ezsdk_dm816x-evm_5_05_01_04/component-sources/syslink_2_20_00_14/packages/ti/syslink/lib/syslink.a_release(ProcMgr.o)
                              /home/user/ti-ezsdk_dm816x-evm_5_05_01_04/component-sources/syslink_2_20_00_14/packages/ti/syslink/lib/syslink.a_release(Ipc.o) (ProcMgr_destroy)
/home/user/ti-ezsdk_dm816x-evm_5_05_01_04/component-sources/syslink_2_20_00_14/packages/ti/syslink/lib/syslink.a_release(ProcMgrDrvUsr.o)
                              /home/user/ti-ezsdk_dm816x-evm_5_05_01_04/component-sources/syslink_2_20_00_14/packages/ti/syslink/lib/syslink.a_release(ProcMgr.o) (ProcMgrDrvUsr_close)
/home/user/ti-ezsdk_dm816x-evm_5_05_01_04/component-sources/syslink_2_20_00_14/packages/ti/syslink/lib/syslink.a_release(FrameQ_common.o)
                              /home/user/ti-ezsdk_dm816x-evm_5_05_01_04/component-sources/syslink_2_20_00_14/packages/ti/syslink/lib/syslink.a_release(FrameQ.o) (FrameQ_isSupportedInterface)
/home/user/ti-ezsdk_dm816x-evm_5_05_01_04/component-sources/syslink_2_20_00_14/packages/ti/syslink/lib/syslink.a_release(ListMP.o)
                              /home/user/ti-ezsdk_dm816x-evm_5_05_01_04/component-sources/syslink_2_20_00_14/packages/ti/syslink/lib/syslink.a_release(Ipc.o) (ListMP_destroy)
/home/user/ti-ezsdk_dm816x-evm_5_05_01_04/component-sources/syslink_2_20_00_14/packages/ti/syslink/lib/syslink.a_release(MessageQ.o)
                              /home/user/ti-ezsdk_dm816x-evm_5_05_01_04/component-sources/syslink_2_20_00_14/packages/ti/syslink/lib/syslink.a_release(Ipc.o) (MessageQ_destroy)
/home/user/ti-ezsdk_dm816x-evm_5_05_01_04/component-sources/syslink_2_20_00_14/packages/ti/syslink/lib/syslink.a_release(ListMPDrv.o)
                              /home/user/ti-ezsdk_dm816x-evm_5_05_01_04/component-sources/syslink_2_20_00_14/packages/ti/syslink/lib/syslink.a_release(ListMP.o) (ListMPDrv_ioctl)
/home/user/ti-ezsdk_dm816x-evm_5_05_01_04/component-sources/syslink_2_20_00_14/packages/ti/syslink/lib/syslink.a_release(MessageQDrv.o)
                              /home/user/ti-ezsdk_dm816x-evm_5_05_01_04/component-sources/syslink_2_20_00_14/packages/ti/syslink/lib/syslink.a_release(MessageQ.o) (MessageQDrv_ioctl)
/home/user/CodeSourcery/Sourcery_G++_Lite/bin/../arm-none-linux-gnueabi/libc/usr/lib/libc_nonshared.a(elf-init.oS)
                              /home/user/CodeSourcery/Sourcery_G++_Lite/bin/../arm-none-linux-gnueabi/libc/usr/lib/crt1.o (__libc_csu_fini)
/home/user/CodeSourcery/Sourcery_G++_Lite/bin/../lib/gcc/arm-none-linux-gnueabi/4.3.3/libgcc.a(_udivsi3.o)
                              /home/user/ti-ezsdk_dm816x-evm_5_05_01_04/component-sources/syslink_2_20_00_14/packages/ti/syslink/lib/syslink.a_release(FrameQ.o) (__aeabi_uidivmod)
/home/user/CodeSourcery/Sourcery_G++_Lite/bin/../lib/gcc/arm-none-linux-gnueabi/4.3.3/libgcc.a(_arm_addsubdf3.o)
                              bin/release/obj/App.ov5T (__aeabi_f2d)
/home/user/CodeSourcery/Sourcery_G++_Lite/bin/../lib/gcc/arm-none-linux-gnueabi/4.3.3/libgcc.a(_dvmd_lnx.o)
                              /home/user/CodeSourcery/Sourcery_G++_Lite/bin/../lib/gcc/arm-none-linux-gnueabi/4.3.3/libgcc.a(_udivsi3.o) (__aeabi_idiv0)

Allocating common symbols
Common symbol       size              file

T_output            0x10              bin/release/obj/App.ov5T
MemoryOS_state      0x10              /home/user/ti-ezsdk_dm816x-evm_5_05_01_04/component-sources/syslink_2_20_00_14/packages/ti/syslink/lib/syslink.a_release(MemoryOS.o)
NameServer_Object   0x4               /home/user/ti-ezsdk_dm816x-evm_5_05_01_04/component-sources/syslink_2_20_00_14/packages/ti/syslink/lib/syslink.a_release(NameServer.o)

Discarded input sections

 .note.GNU-stack
                0x00000000        0x0 /home/user/CodeSourcery/Sourcery_G++_Lite/bin/../arm-none-linux-gnueabi/libc/usr/lib/crt1.o
 .note.GNU-stack
                0x00000000        0x0 /home/user/CodeSourcery/Sourcery_G++_Lite/bin/../arm-none-linux-gnueabi/libc/usr/lib/crti.o
 .note.GNU-stack
                0x00000000        0x0 /home/user/CodeSourcery/Sourcery_G++_Lite/bin/../lib/gcc/arm-none-linux-gnueabi/4.3.3/crtbegin.o
 .note.GNU-stack
                0x00000000        0x0 bin/release/obj/main_host.ov5T
 .note.GNU-stack
                0x00000000        0x0 bin/release/obj/App.ov5T
 .note.GNU-stack
                0x00000000        0x0 /home/user/ti-ezsdk_dm816x-evm_5_05_01_04/component-sources/syslink_2_20_00_14/packages/ti/syslink/lib/syslink.a_release(SharedRegion.o)
 .note.GNU-stack
                0x00000000        0x0 /home/user/ti-ezsdk_dm816x-evm_5_05_01_04/component-sources/syslink_2_20_00_14/packages/ti/syslink/lib/syslink.a_release(Notify.o)
 .note.GNU-stack
                0x00000000        0x0 /home/user/ti-ezsdk_dm816x-evm_5_05_01_04/component-sources/syslink_2_20_00_14/packages/ti/syslink/lib/syslink.a_release(Ipc.o)
 .note.GNU-stack
                0x00000000        0x0 /home/user/ti-ezsdk_dm816x-evm_5_05_01_04/component-sources/syslink_2_20_00_14/packages/ti/syslink/lib/syslink.a_release(RingIO.o)
 .note.GNU-stack
                0x00000000        0x0 /home/user/ti-ezsdk_dm816x-evm_5_05_01_04/component-sources/syslink_2_20_00_14/packages/ti/syslink/lib/syslink.a_release(RingIOShm.o)
 .note.GNU-stack
                0x00000000        0x0 /home/user/ti-ezsdk_dm816x-evm_5_05_01_04/component-sources/syslink_2_20_00_14/packages/ti/syslink/lib/syslink.a_release(FrameQ.o)
 .note.GNU-stack
                0x00000000        0x0 /home/user/ti-ezsdk_dm816x-evm_5_05_01_04/component-sources/syslink_2_20_00_14/packages/ti/syslink/lib/syslink.a_release(FrameQBufMgr.o)
 .note.GNU-stack
                0x00000000        0x0 /home/user/ti-ezsdk_dm816x-evm_5_05_01_04/component-sources/syslink_2_20_00_14/packages/ti/syslink/lib/syslink.a_release(ClientNotifyMgr.o)
 .note.GNU-stack
                0x00000000        0x0 /home/user/ti-ezsdk_dm816x-evm_5_05_01_04/component-sources/syslink_2_20_00_14/packages/ti/syslink/lib/syslink.a_release(HeapMemMP.o)
 .note.GNU-stack
                0x00000000        0x0 /home/user/ti-ezsdk_dm816x-evm_5_05_01_04/component-sources/syslink_2_20_00_14/packages/ti/syslink/lib/syslink.a_release(HeapBufMP.o)
 .note.GNU-stack
                0x00000000        0x0 /home/user/ti-ezsdk_dm816x-evm_5_05_01_04/component-sources/syslink_2_20_00_14/packages/ti/syslink/lib/syslink.a_release(GateMP.o)
 .note.GNU-stack
                0x00000000        0x0 /home/user/ti-ezsdk_dm816x-evm_5_05_01_04/component-sources/syslink_2_20_00_14/packages/ti/syslink/lib/syslink.a_release(SharedRegionDrv.o)
 .note.GNU-stack
                0x00000000        0x0 /home/user/ti-ezsdk_dm816x-evm_5_05_01_04/component-sources/syslink_2_20_00_14/packages/ti/syslink/lib/syslink.a_release(NotifyDrvUsr.o)
 .note.GNU-stack
                0x00000000        0x0 /home/user/ti-ezsdk_dm816x-evm_5_05_01_04/component-sources/syslink_2_20_00_14/packages/ti/syslink/lib/syslink.a_release(HeapBufMPDrv.o)
 .note.GNU-stack
                0x00000000        0x0 /home/user/ti-ezsdk_dm816x-evm_5_05_01_04/component-sources/syslink_2_20_00_14/packages/ti/syslink/lib/syslink.a_release(IpcDrv.o)
 .note.GNU-stack
                0x00000000        0x0 /home/user/ti-ezsdk_dm816x-evm_5_05_01_04/component-sources/syslink_2_20_00_14/packages/ti/syslink/lib/syslink.a_release(FrameQDrv.o)
 .note.GNU-stack
                0x00000000        0x0 /home/user/ti-ezsdk_dm816x-evm_5_05_01_04/component-sources/syslink_2_20_00_14/packages/ti/syslink/lib/syslink.a_release(FrameQBufMgrDrv.o)
 .note.GNU-stack
                0x00000000        0x0 /home/user/ti-ezsdk_dm816x-evm_5_05_01_04/component-sources/syslink_2_20_00_14/packages/ti/syslink/lib/syslink.a_release(ClientNotifyMgrDrv.o)
 .note.GNU-stack
                0x00000000        0x0 /home/user/ti-ezsdk_dm816x-evm_5_05_01_04/component-sources/syslink_2_20_00_14/packages/ti/syslink/lib/syslink.a_release(RingIODrv.o)
 .note.GNU-stack
                0x00000000        0x0 /home/user/ti-ezsdk_dm816x-evm_5_05_01_04/component-sources/syslink_2_20_00_14/packages/ti/syslink/lib/syslink.a_release(RingIOShmDrv.o)
 .note.GNU-stack
                0x00000000        0x0 /home/user/ti-ezsdk_dm816x-evm_5_05_01_04/component-sources/syslink_2_20_00_14/packages/ti/syslink/lib/syslink.a_release(HeapMemMPDrv.o)
 .note.GNU-stack
                0x00000000        0x0 /home/user/ti-ezsdk_dm816x-evm_5_05_01_04/component-sources/syslink_2_20_00_14/packages/ti/syslink/lib/syslink.a_release(GateMPDrv.o)
 .note.GNU-stack
                0x00000000        0x0 /home/user/ti-ezsdk_dm816x-evm_5_05_01_04/component-sources/syslink_2_20_00_14/packages/ti/syslink/lib/syslink.a_release(OsalProcess.o)
 .note.GNU-stack
                0x00000000        0x0 /home/user/ti-ezsdk_dm816x-evm_5_05_01_04/component-sources/syslink_2_20_00_14/packages/ti/syslink/lib/syslink.a_release(GateMutex.o)
 .note.GNU-stack
                0x00000000        0x0 /home/user/ti-ezsdk_dm816x-evm_5_05_01_04/component-sources/syslink_2_20_00_14/packages/ti/syslink/lib/syslink.a_release(Memory.o)
 .note.GNU-stack
                0x00000000        0x0 /home/user/ti-ezsdk_dm816x-evm_5_05_01_04/component-sources/syslink_2_20_00_14/packages/ti/syslink/lib/syslink.a_release(List.o)
 .note.GNU-stack
                0x00000000        0x0 /home/user/ti-ezsdk_dm816x-evm_5_05_01_04/component-sources/syslink_2_20_00_14/packages/ti/syslink/lib/syslink.a_release(String.o)
 .note.GNU-stack
                0x00000000        0x0 /home/user/ti-ezsdk_dm816x-evm_5_05_01_04/component-sources/syslink_2_20_00_14/packages/ti/syslink/lib/syslink.a_release(Trace.o)
 .note.GNU-stack
                0x00000000        0x0 /home/user/ti-ezsdk_dm816x-evm_5_05_01_04/component-sources/syslink_2_20_00_14/packages/ti/syslink/lib/syslink.a_release(NameServer.o)
 .note.GNU-stack
                0x00000000        0x0 /home/user/ti-ezsdk_dm816x-evm_5_05_01_04/component-sources/syslink_2_20_00_14/packages/ti/syslink/lib/syslink.a_release(MultiProc.o)
 .note.GNU-stack
                0x00000000        0x0 /home/user/ti-ezsdk_dm816x-evm_5_05_01_04/component-sources/syslink_2_20_00_14/packages/ti/syslink/lib/syslink.a_release(Gate.o)
 .note.GNU-stack
                0x00000000        0x0 /home/user/ti-ezsdk_dm816x-evm_5_05_01_04/component-sources/syslink_2_20_00_14/packages/ti/syslink/lib/syslink.a_release(SysLink.o)
 .note.GNU-stack
                0x00000000        0x0 /home/user/ti-ezsdk_dm816x-evm_5_05_01_04/component-sources/syslink_2_20_00_14/packages/ti/syslink/lib/syslink.a_release(Cache.o)
 .note.GNU-stack
                0x00000000        0x0 /home/user/ti-ezsdk_dm816x-evm_5_05_01_04/component-sources/syslink_2_20_00_14/packages/ti/syslink/lib/syslink.a_release(NameServerDrv.o)
 .note.GNU-stack
                0x00000000        0x0 /home/user/ti-ezsdk_dm816x-evm_5_05_01_04/component-sources/syslink_2_20_00_14/packages/ti/syslink/lib/syslink.a_release(MultiProcDrv.o)
 .note.GNU-stack
                0x00000000        0x0 /home/user/ti-ezsdk_dm816x-evm_5_05_01_04/component-sources/syslink_2_20_00_14/packages/ti/syslink/lib/syslink.a_release(TraceDrv.o)
 .note.GNU-stack
                0x00000000        0x0 /home/user/ti-ezsdk_dm816x-evm_5_05_01_04/component-sources/syslink_2_20_00_14/packages/ti/syslink/lib/syslink.a_release(CacheDrv.o)
 .note.GNU-stack
                0x00000000        0x0 /home/user/ti-ezsdk_dm816x-evm_5_05_01_04/component-sources/syslink_2_20_00_14/packages/ti/syslink/lib/syslink.a_release(MemoryOS.o)
 .note.GNU-stack
                0x00000000        0x0 /home/user/ti-ezsdk_dm816x-evm_5_05_01_04/component-sources/syslink_2_20_00_14/packages/ti/syslink/lib/syslink.a_release(OsalDrv.o)
 .note.GNU-stack
                0x00000000        0x0 /home/user/ti-ezsdk_dm816x-evm_5_05_01_04/component-sources/syslink_2_20_00_14/packages/ti/syslink/lib/syslink.a_release(OsalMutex.o)
 .note.GNU-stack
                0x00000000        0x0 /home/user/ti-ezsdk_dm816x-evm_5_05_01_04/component-sources/syslink_2_20_00_14/packages/ti/syslink/lib/syslink.a_release(OsalPrint.o)
 .note.GNU-stack
                0x00000000        0x0 /home/user/ti-ezsdk_dm816x-evm_5_05_01_04/component-sources/syslink_2_20_00_14/packages/ti/syslink/lib/syslink.a_release(ProcMgr.o)
 .note.GNU-stack
                0x00000000        0x0 /home/user/ti-ezsdk_dm816x-evm_5_05_01_04/component-sources/syslink_2_20_00_14/packages/ti/syslink/lib/syslink.a_release(ProcMgrDrvUsr.o)
 .note.GNU-stack
                0x00000000        0x0 /home/user/ti-ezsdk_dm816x-evm_5_05_01_04/component-sources/syslink_2_20_00_14/packages/ti/syslink/lib/syslink.a_release(FrameQ_common.o)
 .note.GNU-stack
                0x00000000        0x0 /home/user/ti-ezsdk_dm816x-evm_5_05_01_04/component-sources/syslink_2_20_00_14/packages/ti/syslink/lib/syslink.a_release(ListMP.o)
 .note.GNU-stack
                0x00000000        0x0 /home/user/ti-ezsdk_dm816x-evm_5_05_01_04/component-sources/syslink_2_20_00_14/packages/ti/syslink/lib/syslink.a_release(MessageQ.o)
 .note.GNU-stack
                0x00000000        0x0 /home/user/ti-ezsdk_dm816x-evm_5_05_01_04/component-sources/syslink_2_20_00_14/packages/ti/syslink/lib/syslink.a_release(ListMPDrv.o)
 .note.GNU-stack
                0x00000000        0x0 /home/user/ti-ezsdk_dm816x-evm_5_05_01_04/component-sources/syslink_2_20_00_14/packages/ti/syslink/lib/syslink.a_release(MessageQDrv.o)
 .note.GNU-stack
                0x00000000        0x0 /home/user/CodeSourcery/Sourcery_G++_Lite/bin/../arm-none-linux-gnueabi/libc/usr/lib/libc_nonshared.a(elf-init.oS)
 .note.GNU-stack
                0x00000000        0x0 /home/user/CodeSourcery/Sourcery_G++_Lite/bin/../lib/gcc/arm-none-linux-gnueabi/4.3.3/libgcc.a(_udivsi3.o)
 .note.GNU-stack
                0x00000000        0x0 /home/user/CodeSourcery/Sourcery_G++_Lite/bin/../lib/gcc/arm-none-linux-gnueabi/4.3.3/libgcc.a(_arm_addsubdf3.o)
 .note.GNU-stack
                0x00000000        0x0 /home/user/CodeSourcery/Sourcery_G++_Lite/bin/../lib/gcc/arm-none-linux-gnueabi/4.3.3/libgcc.a(_dvmd_lnx.o)
 .note.GNU-stack
                0x00000000        0x0 /home/user/CodeSourcery/Sourcery_G++_Lite/bin/../lib/gcc/arm-none-linux-gnueabi/4.3.3/crtend.o
 .note.GNU-stack
                0x00000000        0x0 /home/user/CodeSourcery/Sourcery_G++_Lite/bin/../arm-none-linux-gnueabi/libc/usr/lib/crtn.o

Memory Configuration

Name             Origin             Length             Attributes
*default*        0x00000000         0xffffffff

Linker script and memory map

LOAD /home/user/CodeSourcery/Sourcery_G++_Lite/bin/../arm-none-linux-gnueabi/libc/usr/lib/crt1.o
LOAD /home/user/CodeSourcery/Sourcery_G++_Lite/bin/../arm-none-linux-gnueabi/libc/usr/lib/crti.o
LOAD /home/user/CodeSourcery/Sourcery_G++_Lite/bin/../lib/gcc/arm-none-linux-gnueabi/4.3.3/crtbegin.o
LOAD bin/release/obj/main_host.ov5T
LOAD bin/release/obj/App.ov5T
LOAD /home/user/ti-ezsdk_dm816x-evm_5_05_01_04/component-sources/syslink_2_20_00_14/packages/ti/syslink/lib/syslink.a_release
LOAD /home/user/CodeSourcery/Sourcery_G++_Lite/bin/../arm-none-linux-gnueabi/libc/usr/lib/libpthread.so
START GROUP
LOAD /home/user/CodeSourcery/Sourcery_G++_Lite/bin/../arm-none-linux-gnueabi/libc/lib/libpthread.so.0
LOAD /home/user/CodeSourcery/Sourcery_G++_Lite/bin/../arm-none-linux-gnueabi/libc/usr/lib/libpthread_nonshared.a
END GROUP
LOAD /home/user/CodeSourcery/Sourcery_G++_Lite/bin/../arm-none-linux-gnueabi/libc/usr/lib/libc.so
START GROUP
LOAD /home/user/CodeSourcery/Sourcery_G++_Lite/bin/../arm-none-linux-gnueabi/libc/lib/libc.so.6
LOAD /home/user/CodeSourcery/Sourcery_G++_Lite/bin/../arm-none-linux-gnueabi/libc/usr/lib/libc_nonshared.a
LOAD /home/user/CodeSourcery/Sourcery_G++_Lite/bin/../arm-none-linux-gnueabi/libc/lib/ld-linux.so.3
END GROUP
LOAD /home/user/CodeSourcery/Sourcery_G++_Lite/bin/../arm-none-linux-gnueabi/libc/usr/lib/librt.so
LOAD /home/user/CodeSourcery/Sourcery_G++_Lite/bin/../arm-none-linux-gnueabi/libc/usr/lib/libm.so
LOAD /home/user/CodeSourcery/Sourcery_G++_Lite/bin/../lib/gcc/arm-none-linux-gnueabi/4.3.3/libgcc.a
LOAD /home/user/CodeSourcery/Sourcery_G++_Lite/bin/../arm-none-linux-gnueabi/libc/lib/libgcc_s.so
LOAD /home/user/CodeSourcery/Sourcery_G++_Lite/bin/../arm-none-linux-gnueabi/libc/usr/lib/libc.so
START GROUP
LOAD /home/user/CodeSourcery/Sourcery_G++_Lite/bin/../arm-none-linux-gnueabi/libc/lib/libc.so.6
LOAD /home/user/CodeSourcery/Sourcery_G++_Lite/bin/../arm-none-linux-gnueabi/libc/usr/lib/libc_nonshared.a
LOAD /home/user/CodeSourcery/Sourcery_G++_Lite/bin/../arm-none-linux-gnueabi/libc/lib/ld-linux.so.3
END GROUP
LOAD /home/user/CodeSourcery/Sourcery_G++_Lite/bin/../lib/gcc/arm-none-linux-gnueabi/4.3.3/libgcc.a
LOAD /home/user/CodeSourcery/Sourcery_G++_Lite/bin/../arm-none-linux-gnueabi/libc/lib/libgcc_s.so
LOAD /home/user/CodeSourcery/Sourcery_G++_Lite/bin/../lib/gcc/arm-none-linux-gnueabi/4.3.3/crtend.o
LOAD /home/user/CodeSourcery/Sourcery_G++_Lite/bin/../arm-none-linux-gnueabi/libc/usr/lib/crtn.o
                0x00008000                PROVIDE (__executable_start, 0x8000)
                0x00008134                . = (0x8000 + SIZEOF_HEADERS)

.interp         0x00008134       0x13
 *(.interp)
 .interp        0x00008134       0x13 /home/user/CodeSourcery/Sourcery_G++_Lite/bin/../arm-none-linux-gnueabi/libc/usr/lib/crti.o

.note.ABI-tag   0x00008148       0x20
 .note.ABI-tag  0x00008148       0x20 /home/user/CodeSourcery/Sourcery_G++_Lite/bin/../arm-none-linux-gnueabi/libc/usr/lib/crt1.o

.note.gnu.build-id
 *(.note.gnu.build-id)

.hash           0x00008168      0x154
 *(.hash)
 .hash          0x00008168      0x154 /home/user/CodeSourcery/Sourcery_G++_Lite/bin/../arm-none-linux-gnueabi/libc/usr/lib/crti.o

.gnu.hash
 *(.gnu.hash)

.dynsym         0x000082bc      0x2e0
 *(.dynsym)
 .dynsym        0x000082bc      0x2e0 /home/user/CodeSourcery/Sourcery_G++_Lite/bin/../arm-none-linux-gnueabi/libc/usr/lib/crti.o

.dynstr         0x0000859c      0x20f
 *(.dynstr)
 .dynstr        0x0000859c      0x20f /home/user/CodeSourcery/Sourcery_G++_Lite/bin/../arm-none-linux-gnueabi/libc/usr/lib/crti.o

.gnu.version    0x000087ac       0x5c
 *(.gnu.version)
 .gnu.version   0x000087ac       0x5c /home/user/CodeSourcery/Sourcery_G++_Lite/bin/../arm-none-linux-gnueabi/libc/usr/lib/crti.o

.gnu.version_d  0x00008808        0x0
 *(.gnu.version_d)
 .gnu.version_d
                0x00000000        0x0 /home/user/CodeSourcery/Sourcery_G++_Lite/bin/../arm-none-linux-gnueabi/libc/usr/lib/crti.o

.gnu.version_r  0x00008808       0xa0
 *(.gnu.version_r)
 .gnu.version_r
                0x00008808       0xa0 /home/user/CodeSourcery/Sourcery_G++_Lite/bin/../arm-none-linux-gnueabi/libc/usr/lib/crti.o

.rel.dyn        0x000088a8       0x18
 *(.rel.init)
 *(.rel.text .rel.text.* .rel.gnu.linkonce.t.*)
 *(.rel.fini)
 *(.rel.rodata .rel.rodata.* .rel.gnu.linkonce.r.*)
 *(.rel.data.rel.ro* .rel.gnu.linkonce.d.rel.ro.*)
 *(.rel.data .rel.data.* .rel.gnu.linkonce.d.*)
 *(.rel.tdata .rel.tdata.* .rel.gnu.linkonce.td.*)
 *(.rel.tbss .rel.tbss.* .rel.gnu.linkonce.tb.*)
 *(.rel.ctors)
 *(.rel.dtors)
 *(.rel.got)
 .rel.got       0x000088a8       0x18 /home/user/CodeSourcery/Sourcery_G++_Lite/bin/../arm-none-linux-gnueabi/libc/usr/lib/crti.o
 *(.rel.bss .rel.bss.* .rel.gnu.linkonce.b.*)
 .rel.bss       0x00000000        0x0 /home/user/CodeSourcery/Sourcery_G++_Lite/bin/../arm-none-linux-gnueabi/libc/usr/lib/crti.o

.rel.ifunc.dyn
 *(.rel.ifunc.*)

.rela.dyn
 *(.rela.init)
 *(.rela.text .rela.text.* .rela.gnu.linkonce.t.*)
 *(.rela.fini)
 *(.rela.rodata .rela.rodata.* .rela.gnu.linkonce.r.*)
 *(.rela.data .rela.data.* .rela.gnu.linkonce.d.*)
 *(.rela.tdata .rela.tdata.* .rela.gnu.linkonce.td.*)
 *(.rela.tbss .rela.tbss.* .rela.gnu.linkonce.tb.*)
 *(.rela.ctors)
 *(.rela.dtors)
 *(.rela.got)
 *(.rela.bss .rela.bss.* .rela.gnu.linkonce.b.*)

.rela.ifunc.dyn
 *(.rela.ifunc.*)

.rel.plt        0x000088c0      0x140
 *(.rel.plt)
 .rel.plt       0x000088c0      0x140 /home/user/CodeSourcery/Sourcery_G++_Lite/bin/../arm-none-linux-gnueabi/libc/usr/lib/crti.o

.rela.plt
 *(.rela.plt)

.init           0x00008a00        0xc
 *(.init)
 .init          0x00008a00        0x8 /home/user/CodeSourcery/Sourcery_G++_Lite/bin/../arm-none-linux-gnueabi/libc/usr/lib/crti.o
                0x00008a00                _init
 .init          0x00008a08        0x4 /home/user/CodeSourcery/Sourcery_G++_Lite/bin/../arm-none-linux-gnueabi/libc/usr/lib/crtn.o

.plt            0x00008a0c      0x1f4
 *(.plt)
 .plt           0x00008a0c      0x1f4 /home/user/CodeSourcery/Sourcery_G++_Lite/bin/../arm-none-linux-gnueabi/libc/usr/lib/crti.o
                0x00008a20                open@@GLIBC_2.4
                0x00008a2c                mmap@@GLIBC_2.4
                0x00008a38                abort@@GLIBC_2.4
                0x00008a44                pthread_exit@@GLIBC_2.4
                0x00008a50                clock_gettime@@GLIBC_2.4
                0x00008a5c                __libc_start_main@@GLIBC_2.4
                0x00008a74                sqrtf@@GLIBC_2.4
                0x00008a80                vsprintf@@GLIBC_2.4
                0x00008a8c                getenv@@GLIBC_2.4
                0x00008a98                sem_init@@GLIBC_2.4
                0x00008aa4                memset@@GLIBC_2.4
                0x00008ab0                sem_destroy@@GLIBC_2.4
                0x00008abc                perror@@GLIBC_2.4
                0x00008ac8                usleep@@GLIBC_2.4
                0x00008ad4                free@@GLIBC_2.4
                0x00008ae0                read@@GLIBC_2.4
                0x00008aec                pthread_mutex_unlock@@GLIBC_2.4
                0x00008af8                ioctl@@GLIBC_2.4
                0x00008b04                pthread_mutex_lock@@GLIBC_2.4
                0x00008b10                pthread_create@@GLIBC_2.4
                0x00008b1c                memcpy@@GLIBC_2.4
                0x00008b28                sem_post@@GLIBC_2.4
                0x00008b34                pthread_sigmask@@GLIBC_2.4
                0x00008b40                printf@@GLIBC_2.4
                0x00008b4c                raise@@GLIBC_2.4
                0x00008b58                pthread_mutex_init@@GLIBC_2.4
                0x00008b64                close@@GLIBC_2.4
                0x00008b70                malloc@@GLIBC_2.4
                0x00008b7c                sigfillset@@GLIBC_2.4
                0x00008b88                puts@@GLIBC_2.4
                0x00008b94                getpid@@GLIBC_2.4
                0x00008ba0                fcntl@@GLIBC_2.4
                0x00008bac                munmap@@GLIBC_2.4
                0x00008bb8                sem_wait@@GLIBC_2.4
                0x00008bc4                exit@@GLIBC_2.4
                0x00008bd0                pthread_self@@GLIBC_2.4
                0x00008bdc                sprintf@@GLIBC_2.4
                0x00008be8                pthread_join@@GLIBC_2.4
                0x00008bf4                getpagesize@@GLIBC_2.4

.text           0x00008c00    0x2c5ec
 *(.text .stub .text.* .gnu.linkonce.t.*)
 .text          0x00008c00       0x38 /home/user/CodeSourcery/Sourcery_G++_Lite/bin/../arm-none-linux-gnueabi/libc/usr/lib/crt1.o
                0x00008c00                _start
 .text          0x00008c38       0x24 /home/user/CodeSourcery/Sourcery_G++_Lite/bin/../arm-none-linux-gnueabi/libc/usr/lib/crti.o
 .text          0x00008c5c       0x4c /home/user/CodeSourcery/Sourcery_G++_Lite/bin/../lib/gcc/arm-none-linux-gnueabi/4.3.3/crtbegin.o
 .text          0x00008ca8      0x2b0 bin/release/obj/main_host.ov5T
                0x00008ca8                main
 .text          0x00008f58      0x814 bin/release/obj/App.ov5T
                0x00008f58                App_delete
                0x000090d0                App_exec
                0x000095cc                App_create
 .text          0x0000976c     0x2e68 /home/user/ti-ezsdk_dm816x-evm_5_05_01_04/component-sources/syslink_2_20_00_14/packages/ti/syslink/lib/syslink.a_release(SharedRegion.o)
                0x0000bb60                SharedRegion_getPtr
                0x0000bd38                SharedRegion_setup
                0x0000a060                SharedRegion_isCacheEnabled
                0x00009c30                SharedRegion_getRegionInfo
                0x00009fc0                SharedRegion_getNumRegions
                0x00009db4                SharedRegion_getNumOffsetBits
                0x0000a30c                SharedRegion_getEntry
                0x0000b0b4                SharedRegion_checkOverlap
                0x0000a4b0                SharedRegion_getSRPtr
                0x0000ae0c                SharedRegion_clearEntry
                0x0000acec                SharedRegion_getConfig
                0x00009918                SharedRegion_clearReservedMemory
                0x0000a97c                SharedRegion_stop
                0x0000b924                SharedRegion_destroy
                0x000099ec                _SharedRegion_setRegions
                0x0000b700                SharedRegion_getIdByName
                0x0000c164                SharedRegion_reserveMemory
                0x0000ab2c                SharedRegion_getHeap
                0x0000976c                SharedRegion_invalidSRPtr
                0x0000aa54                SharedRegion_start
                0x0000a868                SharedRegion_attach
                0x0000b2cc                SharedRegion_getId
                0x0000a75c                SharedRegion_detach
                0x0000a1c4                SharedRegion_getCacheLineSize
                0x0000b480                SharedRegion_setEntry
                0x0000a010                SharedRegion_translateEnabled
                0x00009774                _SharedRegion_clearRegions
                0x00009e90                SharedRegion_entryInit
 .text          0x0000c5d4     0x20e8 /home/user/ti-ezsdk_dm816x-evm_5_05_01_04/component-sources/syslink_2_20_00_14/packages/ti/syslink/lib/syslink.a_release(Notify.o)
                0x0000e584                Notify_getConfig
                0x0000ddb4                Notify_registerEventSingle
                0x0000cacc                Notify_restore
                0x0000d2a0                Notify_sendEvent
                0x0000c850                Notify_disableEvent
                0x0000cdd8                Notify_intLineRegistered
                0x0000e0b4                Notify_sharedMemReq
                0x0000d548                Notify_unregisterEvent
                0x0000e420                Notify_setup
                0x0000d810                Notify_unregisterEventSingle
                0x0000cfa0                Notify_eventAvailable
                0x0000e344                Notify_destroy
                0x0000d1bc                Notify_detach
                0x0000e200                Notify_attach
                0x0000dab0                Notify_registerEvent
                0x0000cc4c                Notify_disable
                0x0000c5d4                Notify_enableEvent
 .text          0x0000e6bc     0x1000 /home/user/ti-ezsdk_dm816x-evm_5_05_01_04/component-sources/syslink_2_20_00_14/packages/ti/syslink/lib/syslink.a_release(Ipc.o)
                0x0000e730                Ipc_writeConfig
                0x0000e6bc                Ipc_runtimeId
                0x0000e8a0                Ipc_control
                0x0000e9fc                Ipc_destroy
                0x0000f0e0                Ipc_setup
                0x0000ef80                Ipc_getConfig
                0x0000e7e8                Ipc_readConfig
 .text          0x0000f6bc     0x21c0 /home/user/ti-ezsdk_dm816x-evm_5_05_01_04/component-sources/syslink_2_20_00_14/packages/ti/syslink/lib/syslink.a_release(RingIO.o)
                0x000101fc                RingIO_unregisterNotifier
                0x00011374                RingIO_destroy
                0x0001060c                RingIO_close
                0x00011444                RingIO_getConfig
                0x0000fec8                RingIO_flush
                0x0001167c                RingIO_setAttribute
                0x0000fcb8                RingIO_getValidSize
                0x0000fe40                RingIO_sendNotify
                0x0000f6bc                RingIO_sharedMemReq
                0x00010820                RingIO_delete
                0x00010a2c                RingIO_openByAddr
                0x0000f940                RingIO_getWaterMark
                0x000104cc                RingIO_Params_init
                0x0000fafc                RingIO_getEmptyAttrSize
                0x0000f818                RingIO_release
                0x0000fa68                RingIO_getAcquiredOffset
                0x0001032c                RingIO_registerNotifier
                0x0000fd4c                RingIO_setNotifyType
                0x00010ce4                RingIO_open
                0x00010028                RingIO_getvAttribute
                0x000100d4                RingIO_acquire
                0x0000fc24                RingIO_getEmptySize
                0x0000f8ac                RingIO_setWaterMark
                0x0000f78c                RingIO_cancel
                0x00011780                RingIO_getAttribute
                0x00010fa0                RingIO_create
                0x0000fb90                RingIO_getValidAttrSize
                0x00011560                RingIO_setup
                0x0000ff74                RingIO_setvAttribute
                0x0000f9d4                RingIO_getAcquiredSize
 .text          0x0001187c      0x444 /home/user/ti-ezsdk_dm816x-evm_5_05_01_04/component-sources/syslink_2_20_00_14/packages/ti/syslink/lib/syslink.a_release(RingIOShm.o)
                0x00011ba4                RingIOShm_setup
                0x0001187c                RingIOShm_Params_init
                0x000119bc                RingIOShm_destroy
                0x00011a88                RingIOShm_getConfig
 .text          0x00011cc0     0x4264 /home/user/ti-ezsdk_dm816x-evm_5_05_01_04/component-sources/syslink_2_20_00_14/packages/ti/syslink/lib/syslink.a_release(FrameQ.o)
                0x00013d74                FrameQ_freev
                0x00012930                FrameQ_sendNotify
                0x00013fb4                FrameQ_free
                0x00015464                FrameQ_close
                0x00013a30                FrameQ_getv
                0x00012f2c                FrameQ_registerNotifier
                0x000145bc                FrameQ_open
                0x00014180                FrameQ_allocv
                0x00012cc8                FrameQ_unregisterNotifier
                0x000157c8                FrameQ_create
                0x000143bc                FrameQ_alloc
                0x00011f64                FrameQ_ShMem_Params_init
                0x000121dc                FrameQ_getvNumFreeFrames
                0x000120b0                FrameQ_control
                0x00012ab0                FrameQ_dup
                0x00011cc0                FrameQ_ShMem_sharedMemReq
                0x0001256c                FrameQ_getvNumFrames
                0x00011e18                FrameQ_Params_init
                0x000137b0                FrameQ_put
                0x00014e14                FrameQ_getConfig
                0x000123e8                FrameQ_getNumFreeFrames
                0x00013258                FrameQ_get
                0x00014cb0                FrameQ_destroy
                0x00012754                FrameQ_getNumFrames
                0x00014f30                FrameQ_setup
                0x0001511c                FrameQ_delete
                0x000134b4                FrameQ_putv
 .text          0x00015f24     0x43a8 /home/user/ti-ezsdk_dm816x-evm_5_05_01_04/component-sources/syslink_2_20_00_14/packages/ti/syslink/lib/syslink.a_release(FrameQBufMgr.o)
                0x000163a4                FrameQBufMgr_getKnlHandle
                0x00018a84                FrameQBufMgr_freev
                0x00016908                FrameQBufMgr_add
                0x00019680                FrameQBufMgr_close
                0x00017ac8                FrameQBufMgr_writeBackFrameBuf
                0x00015f8c                FrameQBufMgr_getId
                0x00016a14                FrameQBufMgr_translateAddr
                0x000193d4                FrameQBufMgr_delete
                0x00016438                FrameQBufMgr_getvNumFreeFrames
                0x00018784                FrameQBufMgr_dupv
                0x00015f30                FrameQBufMgr_isSupportedBufInterface
                0x00017fc4                FrameQBufMgr_allocv
                0x00019e3c                FrameQBufMgr_destroy
                0x00019fb4                FrameQBufMgr_getConfig
                0x00016c94                FrameQBufMgr_free
                0x000170ec                FrameQBufMgr_invalidate
                0x00016004                FrameQBufMgr_getHandle
                0x00016788                FrameQBufMgr_getNumFreeFrames
                0x00017314                FrameQBufMgr_writeBack
                0x00015f24                FrameQBufMgr_isSupportedInterface
                0x00016258                FrameQBufMgr_ShMem_Params_init
                0x000197cc                FrameQBufMgr_create
                0x000176ec                FrameQBufMgr_writeBackHeaderBuf
                0x00015f4c                FrameQBufMgr_getBaseHeaderSize
                0x00017cfc                FrameQBufMgr_dup
                0x00016ecc                FrameQBufMgr_alloc
                0x00018530                FrameQBufMgr_registerNotifier
                0x00017894                FrameQBufMgr_invalidateFrameBuf
                0x0001a0dc                FrameQBufMgr_setup
                0x00016644                FrameQBufMgr_remove
                0x00016100                FrameQBufMgr_Params_init
                0x00018350                FrameQBufMgr_unregisterNotifier
                0x0001752c                FrameQBufMgr_invalidateHeaderBuf
                0x00018da0                FrameQBufMgr_open
 .text          0x0001a2cc     0x2f54 /home/user/ti-ezsdk_dm816x-evm_5_05_01_04/component-sources/syslink_2_20_00_14/packages/ti/syslink/lib/syslink.a_release(ClientNotifyMgr.o)
                0x0001b1b4                ClientNotifyMgr_sendNotification
                0x0001a2cc                ClientNotifyMgr_sendForceNotificationMulti
                0x0001bfac                ClientNotifyMgr_close
                0x0001a5e4                ClientNotifyMgr_disableNotification
                0x0001c1a8                ClientNotifyMgr_sharedMemReq
                0x0001c29c                ClientNotifyMgr_create
                0x0001c9b8                ClientNotifyMgr_destroy
                0x0001ce04                ClientNotifyMgr_callBack
                0x0001cbf4                ClientNotifyMgr_setup
                0x0001c978                ClientNotifyMgr_sharedMemModReq
                0x0001a9c4                ClientNotifyMgr_sendNotificationMulti
                0x0001b5c4                ClientNotifyMgr_unregisterClient
                0x0001cac4                ClientNotifyMgr_getConfig
                0x0001a7cc                ClientNotifyMgr_enableNotification
                0x0001af18                ClientNotifyMgr_sendForceNotification
                0x0001c05c                ClientNotifyMgr_Params_init
                0x0001bc78                ClientNotifyMgr_delete
                0x0001b894                ClientNotifyMgr_registerClient
                0x0001c874                ClientNotifyMgr_open
 .text          0x0001d220     0x1f08 /home/user/ti-ezsdk_dm816x-evm_5_05_01_04/component-sources/syslink_2_20_00_14/packages/ti/syslink/lib/syslink.a_release(HeapMemMP.o)
                0x0001e46c                HeapMemMP_getConfig
                0x0001dd78                HeapMemMP_getStats
                0x0001ee00                HeapMemMP_create
                0x0001dbc8                HeapMemMP_getExtendedStats
                0x0001d6cc                _HeapMemMP_create
                0x0001d220                HeapMemMP_getKnlHandle
                0x0001e35c                HeapMemMP_setup
                0x0001e288                HeapMemMP_destroy
                0x0001d590                HeapMemMP_Params_init
                0x0001e588                HeapMemMP_getUsrHandle
                0x0001d800                HeapMemMP_close
                0x0001d370                HeapMemMP_sharedMemReq
                0x0001d4a0                HeapMemMP_restore
                0x0001d9e4                HeapMemMP_delete
                0x0001df28                HeapMemMP_free
                0x0001e0f0                HeapMemMP_alloc
                0x0001e7d4                HeapMemMP_openByAddr
                0x0001eae8                HeapMemMP_open
 .text          0x0001f128     0x1cbc /home/user/ti-ezsdk_dm816x-evm_5_05_01_04/component-sources/syslink_2_20_00_14/packages/ti/syslink/lib/syslink.a_release(HeapBufMP.o)
                0x00020ac8                HeapBufMP_create
                0x0001f5a0                HeapBufMP_close
                0x000207a4                HeapBufMP_openByAddr
                0x0001f46c                HeapBufMP_sharedMemReq
                0x0001f3b0                HeapBufMP_isBlocking
                0x0001fb24                HeapBufMP_getStats
                0x00020184                HeapBufMP_destroy
                0x00020258                HeapBufMP_setup
                0x0001f128                _HeapBufMP_create
                0x0001ffe8                HeapBufMP_alloc
                0x0002036c                HeapBufMP_getConfig
                0x0001fcd8                HeapBufMP_Params_init
                0x0001f788                HeapBufMP_delete
                0x0001f260                HeapBufMP_getKnlHandle
                0x0001fe18                HeapBufMP_free
                0x00020488                HeapBufMP_open
                0x0001f96c                HeapBufMP_getExtendedStats
 .text          0x00020de4     0x1820 /home/user/ti-ezsdk_dm816x-evm_5_05_01_04/component-sources/syslink_2_20_00_14/packages/ti/syslink/lib/syslink.a_release(GateMP.o)
                0x0002230c                GateMP_getConfig
                0x0002108c                GateMP_getDefaultRemote
                0x0002120c                GateMP_enter
                0x00021364                GateMP_Instance_finalize
                0x00022170                GateMP_setup
                0x00022438                GateMP_delete
                0x0002187c                GateMP_openByAddr
                0x00021c98                GateMP_Instance_init
                0x00020fe4                GateMP_getSharedAddr
                0x00021648                GateMP_close
                0x00021394                GateMP_Params_init
                0x00021a8c                GateMP_open
                0x00020f20                GateMP_getLocalProtect
                0x00021dac                _GateMP_create
                0x0002113c                GateMP_sharedMemReq
                0x000214e4                GateMP_leave
                0x00020ee4                GateMP_getRemoteProtect
                0x00021e70                GateMP_create
                0x00020de4                GateMP_getKnlHandle
                0x0002203c                GateMP_destroy
                0x00020f5c                GateMP_setReserved
 .text          0x00022604      0x458 /home/user/ti-ezsdk_dm816x-evm_5_05_01_04/component-sources/syslink_2_20_00_14/packages/ti/syslink/lib/syslink.a_release(SharedRegionDrv.o)
                0x00022604                SharedRegionDrv_ioctl
                0x00022874                SharedRegionDrv_close
                0x0002293c                SharedRegionDrv_open
 .text          0x00022a5c      0x5e0 /home/user/ti-ezsdk_dm816x-evm_5_05_01_04/component-sources/syslink_2_20_00_14/packages/ti/syslink/lib/syslink.a_release(NotifyDrvUsr.o)
                0x00022a5c                _NotifyDrvUsr_eventWorker
                0x00022c94                NotifyDrvUsr_close
                0x00022ba8                NotifyDrvUsr_ioctl
                0x00022ddc                NotifyDrvUsr_open
 .text          0x0002303c      0x320 /home/user/ti-ezsdk_dm816x-evm_5_05_01_04/component-sources/syslink_2_20_00_14/packages/ti/syslink/lib/syslink.a_release(HeapBufMPDrv.o)
                0x000231e4                HeapBufMPDrv_open
                0x0002303c                HeapBufMPDrv_ioctl
                0x0002311c                HeapBufMPDrv_close
 .text          0x0002335c      0x314 /home/user/ti-ezsdk_dm816x-evm_5_05_01_04/component-sources/syslink_2_20_00_14/packages/ti/syslink/lib/syslink.a_release(IpcDrv.o)
                0x00023504                IpcDrv_open
                0x0002335c                IpcDrv_ioctl
                0x0002343c                IpcDrv_close
 .text          0x00023670      0x2c4 /home/user/ti-ezsdk_dm816x-evm_5_05_01_04/component-sources/syslink_2_20_00_14/packages/ti/syslink/lib/syslink.a_release(FrameQDrv.o)
                0x00023670                FrameQDrv_ioctl
                0x00023818                FrameQDrv_open
                0x00023750                FrameQDrv_close
 .text          0x00023934      0x2c4 /home/user/ti-ezsdk_dm816x-evm_5_05_01_04/component-sources/syslink_2_20_00_14/packages/ti/syslink/lib/syslink.a_release(FrameQBufMgrDrv.o)
                0x00023adc                FrameQBufMgrDrv_open
                0x00023a14                FrameQBufMgrDrv_close
                0x00023934                FrameQBufMgrDrv_ioctl
 .text          0x00023bf8      0x2c4 /home/user/ti-ezsdk_dm816x-evm_5_05_01_04/component-sources/syslink_2_20_00_14/packages/ti/syslink/lib/syslink.a_release(ClientNotifyMgrDrv.o)
                0x00023da0                ClientNotifyMgrDrv_open
                0x00023bf8                ClientNotifyMgrDrv_ioctl
                0x00023cd8                ClientNotifyMgrDrv_close
 .text          0x00023ebc      0x2c4 /home/user/ti-ezsdk_dm816x-evm_5_05_01_04/component-sources/syslink_2_20_00_14/packages/ti/syslink/lib/syslink.a_release(RingIODrv.o)
                0x00023f9c                RingIODrv_close
                0x00023ebc                RingIODrv_ioctl
                0x00024064                RingIODrv_open
 .text          0x00024180      0x2c4 /home/user/ti-ezsdk_dm816x-evm_5_05_01_04/component-sources/syslink_2_20_00_14/packages/ti/syslink/lib/syslink.a_release(RingIOShmDrv.o)
                0x00024180                RingIOShmDrv_ioctl
                0x00024260                RingIOShmDrv_close
                0x00024328                RingIOShmDrv_open
 .text          0x00024444      0x2cc /home/user/ti-ezsdk_dm816x-evm_5_05_01_04/component-sources/syslink_2_20_00_14/packages/ti/syslink/lib/syslink.a_release(HeapMemMPDrv.o)
                0x00024524                HeapMemMPDrv_close
                0x00024444                HeapMemMPDrv_ioctl
                0x000245ec                HeapMemMPDrv_open
 .text          0x00024710      0x2cc /home/user/ti-ezsdk_dm816x-evm_5_05_01_04/component-sources/syslink_2_20_00_14/packages/ti/syslink/lib/syslink.a_release(GateMPDrv.o)
                0x000248b8                GateMPDrv_open
                0x000247f0                GateMPDrv_close
                0x00024710                GateMPDrv_ioctl
 .text          0x000249dc        0x8 /home/user/ti-ezsdk_dm816x-evm_5_05_01_04/component-sources/syslink_2_20_00_14/packages/ti/syslink/lib/syslink.a_release(OsalProcess.o)
                0x000249dc                OsalProcess_getTid
                0x000249e0                OsalProcess_getPid
 .text          0x000249e4      0x4b4 /home/user/ti-ezsdk_dm816x-evm_5_05_01_04/component-sources/syslink_2_20_00_14/packages/ti/syslink/lib/syslink.a_release(GateMutex.o)
                0x000249e4                GateMutex_leave
                0x00024d84                GateMutex_delete
                0x00024c44                GateMutex_create
                0x00024a78                GateMutex_enter
                0x00024b84                GateMutex_Instance_init
                0x00024b18                GateMutex_Instance_finalize
 .text          0x00024e98      0x774 /home/user/ti-ezsdk_dm816x-evm_5_05_01_04/component-sources/syslink_2_20_00_14/packages/ti/syslink/lib/syslink.a_release(Memory.o)
                0x00024e98                Memory_getMaxDefaultTypeAlign
                0x000252fc                Memory_getStats
                0x00024ea0                Memory_translate
                0x00025150                Memory_valloc
                0x000254e0                Memory_calloc
                0x00024fe8                Memory_alloc
                0x00024f08                Memory_query
                0x000253e0                Memory_free
 .text          0x0002560c     0x1134 /home/user/ti-ezsdk_dm816x-evm_5_05_01_04/component-sources/syslink_2_20_00_14/packages/ti/syslink/lib/syslink.a_release(List.o)
                0x00026354                List_get
                0x00025d34                List_construct
                0x0002646c                List_put
                0x00026000                List_insert
                0x00025de4                List_Params_init
                0x00025f4c                List_destruct
                0x00026294                List_create
                0x0002616c                List_delete
                0x00025870                List_remove
                0x0002599c                List_dequeue
                0x00025e84                List_empty
                0x00025bb0                List_next
                0x0002573c                List_enqueue
                0x00025c84                List_elemClear
                0x0002560c                List_enqueueHead
                0x00025a74                List_prev
                0x000265d8                List_putHead
 .text          0x00026740      0x34c /home/user/ti-ezsdk_dm816x-evm_5_05_01_04/component-sources/syslink_2_20_00_14/packages/ti/syslink/lib/syslink.a_release(String.o)
                0x00026a00                String_hash
                0x000268c0                String_cpy
                0x00026774                String_cmp
                0x00026858                String_ncmp
                0x00026970                String_hexToStr
                0x000268dc                String_ncpy
                0x00026740                String_cat
                0x0002693c                String_len
 .text          0x00026a8c      0x35c /home/user/ti-ezsdk_dm816x-evm_5_05_01_04/component-sources/syslink_2_20_00_14/packages/ti/syslink/lib/syslink.a_release(Trace.o)
                0x00026d40                _GT_0trace
                0x00026b48                _GT_5trace
                0x00026d7c                _GT_setTrace
                0x00026cf8                _GT_1trace
                0x00026bc0                _GT_4trace
                0x00026c30                _GT_3trace
                0x00026c98                _GT_2trace
                0x00026acc                _GT_6trace
                0x00026a8c                _GT_setFailureReason
 .text          0x00026de8     0x24c4 /home/user/ti-ezsdk_dm816x-evm_5_05_01_04/component-sources/syslink_2_20_00_14/packages/ti/syslink/lib/syslink.a_release(NameServer.o)
                0x00028a34                NameServer_create
                0x000272e4                NameServer_match
                0x00027540                NameServer_getLocal
                0x00027d38                NameServer_addUInt32
                0x00026f58                NameServer_delete
                0x00027a78                NameServer_add
                0x00028f94                NameServer_destroy
                0x00027114                NameServer_getHandle
                0x00027844                NameServer_getLocalUInt32
                0x00029054                NameServer_setup
                0x00028e4c                NameServer_Params_init
                0x00028468                NameServer_removeEntry
                0x000287f8                NameServer_open
                0x00027ed0                NameServer_get
                0x00028c74                NameServer_close
                0x00028628                NameServer_remove
                0x00026de8                NameServer_isRegistered
                0x00028228                NameServer_getUInt32
                0x00029160                NameServer_getConfig
 .text          0x000292ac      0xa18 /home/user/ti-ezsdk_dm816x-evm_5_05_01_04/component-sources/syslink_2_20_00_14/packages/ti/syslink/lib/syslink.a_release(MultiProc.o)
                0x00029794                MultiProc_destroy
                0x000292ac                MultiProc_self
                0x00029300                MultiProc_getNumProcessors
                0x00029854                MultiProc_setup
                0x0002961c                MultiProc_setLocalId
                0x00029350                MultiProc_getName
                0x00029484                MultiProc_getId
                0x00029acc                MultiProc_getSlot
                0x00029980                MultiProc_getConfig
 .text          0x00029cc4       0xf8 /home/user/ti-ezsdk_dm816x-evm_5_05_01_04/component-sources/syslink_2_20_00_14/packages/ti/syslink/lib/syslink.a_release(Gate.o)
                0x00029cc4                Gate_leaveSystem
                0x00029d00                Gate_enterSystem
 .text          0x00029dbc       0x98 /home/user/ti-ezsdk_dm816x-evm_5_05_01_04/component-sources/syslink_2_20_00_14/packages/ti/syslink/lib/syslink.a_release(SysLink.o)
                0x00029dbc                SysLink_destroy
                0x00029dfc                SysLink_setup
 .text          0x00029e54      0x33c /home/user/ti-ezsdk_dm816x-evm_5_05_01_04/component-sources/syslink_2_20_00_14/packages/ti/syslink/lib/syslink.a_release(Cache.o)
                0x00029edc                Cache_setMode
                0x00029e54                Cache_wait
                0x0002a0e0                Cache_inv
                0x0002a030                Cache_wb
                0x00029f80                Cache_wbInv
 .text          0x0002a190      0x2c8 /home/user/ti-ezsdk_dm816x-evm_5_05_01_04/component-sources/syslink_2_20_00_14/packages/ti/syslink/lib/syslink.a_release(NameServerDrv.o)
                0x0002a338                NameServerDrv_open
                0x0002a270                NameServerDrv_close
                0x0002a190                NameServerDrv_ioctl
 .text          0x0002a458      0x298 /home/user/ti-ezsdk_dm816x-evm_5_05_01_04/component-sources/syslink_2_20_00_14/packages/ti/syslink/lib/syslink.a_release(MultiProcDrv.o)
                0x0002a458                MultiProcDrv_ioctl
                0x0002a50c                MultiProcDrv_close
                0x0002a5d4                MultiProcDrv_open
 .text          0x0002a6f0       0xe8 /home/user/ti-ezsdk_dm816x-evm_5_05_01_04/component-sources/syslink_2_20_00_14/packages/ti/syslink/lib/syslink.a_release(TraceDrv.o)
                0x0002a6f0                TraceDrv_ioctl
 .text          0x0002a7d8       0xb0 /home/user/ti-ezsdk_dm816x-evm_5_05_01_04/component-sources/syslink_2_20_00_14/packages/ti/syslink/lib/syslink.a_release(CacheDrv.o)
                0x0002a7d8                CacheDrv_ioctl
 .text          0x0002a888     0x120c /home/user/ti-ezsdk_dm816x-evm_5_05_01_04/component-sources/syslink_2_20_00_14/packages/ti/syslink/lib/syslink.a_release(MemoryOS.o)
                0x0002af0c                MemoryOS_set
                0x0002b078                MemoryOS_copy
                0x0002b66c                MemoryOS_map
                0x0002ab7c                MemoryOS_setup
                0x0002ad00                MemoryOS_translate
                0x0002a940                MemoryOS_alloc
                0x0002aa0c                MemoryOS_destroy
                0x0002b330                MemoryOS_unmap
                0x0002b1e0                MemoryOS_calloc
                0x0002a888                MemoryOS_free
 .text          0x0002ba94      0x584 /home/user/ti-ezsdk_dm816x-evm_5_05_01_04/component-sources/syslink_2_20_00_14/packages/ti/syslink/lib/syslink.a_release(OsalDrv.o)
                0x0002bc00                OsalDrv_close
                0x0002bcdc                OsalDrv_open
                0x0002bb88                OsalDrv_unmap
                0x0002ba94                OsalDrv_ioctl
                0x0002be10                OsalDrv_map
 .text          0x0002c018      0x3e0 /home/user/ti-ezsdk_dm816x-evm_5_05_01_04/component-sources/syslink_2_20_00_14/packages/ti/syslink/lib/syslink.a_release(OsalMutex.o)
                0x0002c1cc                OsalMutex_delete
                0x0002c2dc                OsalMutex_create
                0x0002c0f4                OsalMutex_enter
                0x0002c018                OsalMutex_leave
 .text          0x0002c3f8       0x48 /home/user/ti-ezsdk_dm816x-evm_5_05_01_04/component-sources/syslink_2_20_00_14/packages/ti/syslink/lib/syslink.a_release(OsalPrint.o)
                0x0002c3f8                Osal_printf
 .text          0x0002c440     0x38ec /home/user/ti-ezsdk_dm816x-evm_5_05_01_04/component-sources/syslink_2_20_00_14/packages/ti/syslink/lib/syslink.a_release(ProcMgr.o)
                0x0002ccf4                ProcMgr_getSymbolAddress
                0x0002f7cc                ProcMgr_destroy
                0x0002d9cc                ProcMgr_unmap
                0x0002c7b8                ProcMgr_delete
                0x0002e92c                ProcMgr_load
                0x0002e61c                ProcMgr_getStartParams
                0x0002dff8                ProcMgr_detach
                0x0002c9b0                ProcMgr_getSectionData
                0x0002fc10                ProcMgr_getConfig
                0x0002d47c                ProcMgr_start
                0x0002c440                ProcMgr_getMaxMemoryRegions
                0x0002c6bc                ProcMgr_stop
                0x0002f110                ProcMgr_open
                0x0002e1b0                ProcMgr_map
                0x0002e824                ProcMgr_Params_init
                0x0002d584                ProcMgr_unload
                0x0002eb90                ProcMgr_attach
                0x0002d0fc                ProcMgr_read
                0x0002d68c                ProcMgr_translateAddr
                0x0002f4e8                ProcMgr_create
                0x0002c5b4                ProcMgr_getState
                0x0002c4bc                ProcMgr_getLoadedFileId
                0x0002e71c                ProcMgr_getAttachParams
                0x0002ee0c                ProcMgr_close
                0x0002cef8                ProcMgr_write
                0x0002e50c                ProcMgr_control
                0x0002d2fc                ProcMgr_getProcInfo
                0x0002cb68                ProcMgr_getSectionInfo
                0x0002fadc                ProcMgr_setup
 .text          0x0002fd2c      0x44c /home/user/ti-ezsdk_dm816x-evm_5_05_01_04/component-sources/syslink_2_20_00_14/packages/ti/syslink/lib/syslink.a_release(ProcMgrDrvUsr.o)
                0x0002fdfc                ProcMgrDrvUsr_open
                0x0002fd2c                ProcMgrDrvUsr_close
                0x0002ff24                ProcMgrDrvUsr_ioctl
 .text          0x00030178      0x700 /home/user/ti-ezsdk_dm816x-evm_5_05_01_04/component-sources/syslink_2_20_00_14/packages/ti/syslink/lib/syslink.a_release(FrameQ_common.o)
                0x000303f4                FrameQ_getNumFrameBuffers
                0x0003059c                FrameQ_getFrameBufValidSize
                0x000301c4                FrameQ_setFrameBufDataStartOffset
                0x000302dc                FrameQ_setFrameBufValidSize
                0x00030784                FrameQ_getFrameBuffer
                0x00030694                FrameQ_getFrameBufSize
                0x00030178                FrameQ_isSupportedInterface
                0x000304a4                FrameQ_getFrameBufDataStartOffset
                0x00030184                FrameQ_getExtendedHeaderPtr
 .text          0x00030878     0x2010 /home/user/ti-ezsdk_dm816x-evm_5_05_01_04/component-sources/syslink_2_20_00_14/packages/ti/syslink/lib/syslink.a_release(ListMP.o)
                0x00032034                ListMP_getConfig
                0x000325b4                ListMP_create
                0x00030880                _ListMP_create
                0x0003123c                ListMP_prev
                0x0003093c                ListMP_remove
                0x00031838                ListMP_close
                0x00031f24                ListMP_setup
                0x00032150                ListMP_open
                0x000323a0                ListMP_openByAddr
                0x00031a00                ListMP_delete
                0x00030878                ListMP_getGate
                0x00031558                ListMP_getTail
                0x00031e50                ListMP_destroy
                0x00030b10                ListMP_insert
                0x00031d0c                ListMP_Params_init
                0x000316cc                ListMP_getHead
                0x00030d2c                ListMP_putTail
                0x000313c8                ListMP_next
                0x00031bd0                ListMP_sharedMemReq
                0x00030f00                ListMP_putHead
                0x000310d4                ListMP_empty
 .text          0x00032888     0x1d2c /home/user/ti-ezsdk_dm816x-evm_5_05_01_04/component-sources/syslink_2_20_00_14/packages/ti/syslink/lib/syslink.a_release(MessageQ.o)
                0x0003330c                MessageQ_close
                0x0003355c                MessageQ_setReplyQueue
                0x00033c48                MessageQ_staticMsgInit
                0x00032bb4                MessageQ_getQueueId
                0x00032888                MessageQ_detach
                0x00033474                MessageQ_setMsgTrace
                0x00032938                MessageQ_unregisterHeap
                0x00034498                MessageQ_getConfig
                0x00033a20                MessageQ_get
                0x00032e30                MessageQ_free
                0x00034388                MessageQ_setup
                0x00033d48                MessageQ_open
                0x00033134                MessageQ_put
                0x00033908                MessageQ_alloc
                0x000340f4                MessageQ_create
                0x000337c8                MessageQ_Params_init
                0x00033680                MessageQ_unblock
                0x00032fa0                MessageQ_count
                0x000342cc                MessageQ_destroy
                0x00033f20                MessageQ_delete
                0x00032a20                MessageQ_attach
                0x00032c70                MessageQ_registerHeap
                0x00032af0                MessageQ_sharedMemReq
 .text          0x000345b4      0x2cc /home/user/ti-ezsdk_dm816x-evm_5_05_01_04/component-sources/syslink_2_20_00_14/packages/ti/syslink/lib/syslink.a_release(ListMPDrv.o)
                0x00034694                ListMPDrv_close
                0x000345b4                ListMPDrv_ioctl
                0x0003475c                ListMPDrv_open
 .text          0x00034880      0x328 /home/user/ti-ezsdk_dm816x-evm_5_05_01_04/component-sources/syslink_2_20_00_14/packages/ti/syslink/lib/syslink.a_release(MessageQDrv.o)
                0x00034880                MessageQDrv_ioctl
                0x00034a28                MessageQDrv_open
                0x00034960                MessageQDrv_close
 .text          0x00034ba8       0x70 /home/user/CodeSourcery/Sourcery_G++_Lite/bin/../arm-none-linux-gnueabi/libc/usr/lib/libc_nonshared.a(elf-init.oS)
                0x00034ba8                __libc_csu_fini
                0x00034bac                __libc_csu_init
 .text          0x00034c18      0x20c /home/user/CodeSourcery/Sourcery_G++_Lite/bin/../lib/gcc/arm-none-linux-gnueabi/4.3.3/libgcc.a(_udivsi3.o)
                0x00034c18                __udivsi3
                0x00034c18                __aeabi_uidiv
                0x00034e04                __aeabi_uidivmod
 .text          0x00034e24      0x3b8 /home/user/CodeSourcery/Sourcery_G++_Lite/bin/../lib/gcc/arm-none-linux-gnueabi/4.3.3/libgcc.a(_arm_addsubdf3.o)
                0x00035168                __floatundidf
                0x00035100                __floatsidf
                0x000350dc                __aeabi_ui2d
                0x00035100                __aeabi_i2d
                0x000350dc                __floatunsidf
                0x00034e2c                __subdf3
                0x0003517c                __floatdidf
                0x00034e30                __adddf3
                0x0003517c                __aeabi_l2d
                0x00035128                __aeabi_f2d
                0x00035168                __aeabi_ul2d
                0x00034e24                __aeabi_drsub
                0x00035128                __extendsfdf2
                0x00034e30                __aeabi_dadd
                0x00034e2c                __aeabi_dsub
 .text          0x000351dc       0x10 /home/user/CodeSourcery/Sourcery_G++_Lite/bin/../lib/gcc/arm-none-linux-gnueabi/4.3.3/libgcc.a(_dvmd_lnx.o)
                0x000351dc                __aeabi_idiv0
                0x000351dc                __aeabi_ldiv0
 .text          0x000351ec        0x0 /home/user/CodeSourcery/Sourcery_G++_Lite/bin/../lib/gcc/arm-none-linux-gnueabi/4.3.3/crtend.o
 .text          0x000351ec        0x0 /home/user/CodeSourcery/Sourcery_G++_Lite/bin/../arm-none-linux-gnueabi/libc/usr/lib/crtn.o
 *(.gnu.warning)
 *(.glue_7t)
 .glue_7t       0x00000000        0x0 linker stubs
 *(.glue_7)
 .glue_7        0x00000000        0x0 linker stubs
 *(.vfp11_veneer)
 .vfp11_veneer  0x00000000        0x0 linker stubs
 *(.v4_bx)
 .v4_bx         0x00000000        0x0 linker stubs

.fini           0x000351ec        0x8
 *(.fini)
 .fini          0x000351ec        0x4 /home/user/CodeSourcery/Sourcery_G++_Lite/bin/../arm-none-linux-gnueabi/libc/usr/lib/crti.o
                0x000351ec                _fini
 .fini          0x000351f0        0x4 /home/user/CodeSourcery/Sourcery_G++_Lite/bin/../arm-none-linux-gnueabi/libc/usr/lib/crtn.o
                0x000351f4                PROVIDE (__etext, .)
                0x000351f4                PROVIDE (_etext, .)
                0x000351f4                PROVIDE (etext, .)

.rodata         0x000351f4    0x1404c
 *(.rodata .rodata.* .gnu.linkonce.r.*)
 .rodata.cst4   0x000351f4        0x4 /home/user/CodeSourcery/Sourcery_G++_Lite/bin/../arm-none-linux-gnueabi/libc/usr/lib/crt1.o
                0x000351f4                _IO_stdin_used
 .rodata.str1.4
                0x000351f8      0x243 bin/release/obj/main_host.ov5T
                                0x244 (size before relaxing)
 *fill*         0x0003543b        0x1 00
 .rodata        0x0003543c       0x10 bin/release/obj/App.ov5T
 .rodata.str1.4
                0x0003544c      0x408 bin/release/obj/App.ov5T
 .rodata.str1.4
                0x00035854     0x132b /home/user/ti-ezsdk_dm816x-evm_5_05_01_04/component-sources/syslink_2_20_00_14/packages/ti/syslink/lib/syslink.a_release(SharedRegion.o)
                               0x1358 (size before relaxing)
 *fill*         0x00036b7f        0x1 00
 .rodata.str1.4
                0x00036b80      0xbf2 /home/user/ti-ezsdk_dm816x-evm_5_05_01_04/component-sources/syslink_2_20_00_14/packages/ti/syslink/lib/syslink.a_release(Notify.o)
                                0xc70 (size before relaxing)
 *fill*         0x00037772        0x2 00
 .rodata.str1.4
                0x00037774      0x80e /home/user/ti-ezsdk_dm816x-evm_5_05_01_04/component-sources/syslink_2_20_00_14/packages/ti/syslink/lib/syslink.a_release(Ipc.o)
                                0x8a0 (size before relaxing)
 *fill*         0x00037f82        0x2 00
 .rodata.str1.4
                0x00037f84     0x116c /home/user/ti-ezsdk_dm816x-evm_5_05_01_04/component-sources/syslink_2_20_00_14/packages/ti/syslink/lib/syslink.a_release(RingIO.o)
                               0x1208 (size before relaxing)
 .rodata.str1.4
                0x000390f0      0x2c0 /home/user/ti-ezsdk_dm816x-evm_5_05_01_04/component-sources/syslink_2_20_00_14/packages/ti/syslink/lib/syslink.a_release(RingIOShm.o)
                                0x380 (size before relaxing)
 .rodata.str1.4
                0x000393b0     0x19de /home/user/ti-ezsdk_dm816x-evm_5_05_01_04/component-sources/syslink_2_20_00_14/packages/ti/syslink/lib/syslink.a_release(FrameQ.o)
                               0x1c64 (size before relaxing)
 *fill*         0x0003ad8e        0x2 00
 .rodata.str1.4
                0x0003ad90     0x192f /home/user/ti-ezsdk_dm816x-evm_5_05_01_04/component-sources/syslink_2_20_00_14/packages/ti/syslink/lib/syslink.a_release(FrameQBufMgr.o)
                               0x2018 (size before relaxing)
 *fill*         0x0003c6bf        0x1 00
 .rodata.str1.4
                0x0003c6c0     0x11ee /home/user/ti-ezsdk_dm816x-evm_5_05_01_04/component-sources/syslink_2_20_00_14/packages/ti/syslink/lib/syslink.a_release(ClientNotifyMgr.o)
                               0x1358 (size before relaxing)
 *fill*         0x0003d8ae        0x2 00
 .rodata.str1.4
                0x0003d8b0      0xbad /home/user/ti-ezsdk_dm816x-evm_5_05_01_04/component-sources/syslink_2_20_00_14/packages/ti/syslink/lib/syslink.a_release(HeapMemMP.o)
                                0xd40 (size before relaxing)
 *fill*         0x0003e45d        0x3 00
 .rodata.str1.4
                0x0003e460      0x95d /home/user/ti-ezsdk_dm816x-evm_5_05_01_04/component-sources/syslink_2_20_00_14/packages/ti/syslink/lib/syslink.a_release(HeapBufMP.o)
                                0xce0 (size before relaxing)
 *fill*         0x0003edbd        0x3 00
 .rodata.str1.4
                0x0003edc0      0x8e2 /home/user/ti-ezsdk_dm816x-evm_5_05_01_04/component-sources/syslink_2_20_00_14/packages/ti/syslink/lib/syslink.a_release(GateMP.o)
                                0xa18 (size before relaxing)
 *fill*         0x0003f6a2        0x2 00
 .rodata.str1.4
                0x0003f6a4      0x2ed /home/user/ti-ezsdk_dm816x-evm_5_05_01_04/component-sources/syslink_2_20_00_14/packages/ti/syslink/lib/syslink.a_release(SharedRegionDrv.o)
                                0x334 (size before relaxing)
 *fill*         0x0003f991        0x3 00
 .rodata.str1.4
                0x0003f994      0x3d2 /home/user/ti-ezsdk_dm816x-evm_5_05_01_04/component-sources/syslink_2_20_00_14/packages/ti/syslink/lib/syslink.a_release(NotifyDrvUsr.o)
                                0x41c (size before relaxing)
 *fill*         0x0003fd66        0x2 00
 .rodata.str1.4
                0x0003fd68      0x262 /home/user/ti-ezsdk_dm816x-evm_5_05_01_04/component-sources/syslink_2_20_00_14/packages/ti/syslink/lib/syslink.a_release(HeapBufMPDrv.o)
                                0x2f0 (size before relaxing)
 *fill*         0x0003ffca        0x2 00
 .rodata.str1.4
                0x0003ffcc      0x20c /home/user/ti-ezsdk_dm816x-evm_5_05_01_04/component-sources/syslink_2_20_00_14/packages/ti/syslink/lib/syslink.a_release(IpcDrv.o)
                                0x298 (size before relaxing)
 .rodata.str1.4
                0x000401d8      0x22f /home/user/ti-ezsdk_dm816x-evm_5_05_01_04/component-sources/syslink_2_20_00_14/packages/ti/syslink/lib/syslink.a_release(FrameQDrv.o)
                                0x2a0 (size before relaxing)
 *fill*         0x00040407        0x1 00
 .rodata.str1.4
                0x00040408      0x291 /home/user/ti-ezsdk_dm816x-evm_5_05_01_04/component-sources/syslink_2_20_00_14/packages/ti/syslink/lib/syslink.a_release(FrameQBufMgrDrv.o)
                                0x304 (size before relaxing)
 *fill*         0x00040699        0x3 00
 .rodata.str1.4
                0x0004069c      0x2d8 /home/user/ti-ezsdk_dm816x-evm_5_05_01_04/component-sources/syslink_2_20_00_14/packages/ti/syslink/lib/syslink.a_release(ClientNotifyMgrDrv.o)
                                0x330 (size before relaxing)
 .rodata.str1.4
                0x00040974      0x22f /home/user/ti-ezsdk_dm816x-evm_5_05_01_04/component-sources/syslink_2_20_00_14/packages/ti/syslink/lib/syslink.a_release(RingIODrv.o)
                                0x2a0 (size before relaxing)
 *fill*         0x00040ba3        0x1 00
 .rodata.str1.4
                0x00040ba4      0x23e /home/user/ti-ezsdk_dm816x-evm_5_05_01_04/component-sources/syslink_2_20_00_14/packages/ti/syslink/lib/syslink.a_release(RingIOShmDrv.o)
                                0x2c8 (size before relaxing)
 *fill*         0x00040de2        0x2 00
 .rodata.str1.4
                0x00040de4      0x262 /home/user/ti-ezsdk_dm816x-evm_5_05_01_04/component-sources/syslink_2_20_00_14/packages/ti/syslink/lib/syslink.a_release(HeapMemMPDrv.o)
                                0x2d4 (size before relaxing)
 *fill*         0x00041046        0x2 00
 .rodata.str1.4
                0x00041048      0x22f /home/user/ti-ezsdk_dm816x-evm_5_05_01_04/component-sources/syslink_2_20_00_14/packages/ti/syslink/lib/syslink.a_release(GateMPDrv.o)
                                0x2a0 (size before relaxing)
 *fill*         0x00041277        0x1 00
 .rodata.str1.4
                0x00041278      0x244 /home/user/ti-ezsdk_dm816x-evm_5_05_01_04/component-sources/syslink_2_20_00_14/packages/ti/syslink/lib/syslink.a_release(GateMutex.o)
                                0x260 (size before relaxing)
 .rodata.str1.4
                0x000414bc      0x4fb /home/user/ti-ezsdk_dm816x-evm_5_05_01_04/component-sources/syslink_2_20_00_14/packages/ti/syslink/lib/syslink.a_release(Memory.o)
                                0x53c (size before relaxing)
 *fill*         0x000419b7        0x1 00
 .rodata.str1.4
                0x000419b8      0x7e6 /home/user/ti-ezsdk_dm816x-evm_5_05_01_04/component-sources/syslink_2_20_00_14/packages/ti/syslink/lib/syslink.a_release(List.o)
                                0x884 (size before relaxing)
 *fill*         0x0004219e        0x2 00
 .rodata        0x000421a0      0x400 /home/user/ti-ezsdk_dm816x-evm_5_05_01_04/component-sources/syslink_2_20_00_14/packages/ti/syslink/lib/syslink.a_release(String.o)
 .rodata.str1.4
                0x000425a0       0x11 /home/user/ti-ezsdk_dm816x-evm_5_05_01_04/component-sources/syslink_2_20_00_14/packages/ti/syslink/lib/syslink.a_release(String.o)
                                 0x14 (size before relaxing)
 *fill*         0x000425b1        0x3 00
 .rodata.str1.4
                0x000425b4       0x4f /home/user/ti-ezsdk_dm816x-evm_5_05_01_04/component-sources/syslink_2_20_00_14/packages/ti/syslink/lib/syslink.a_release(Trace.o)
                                 0x50 (size before relaxing)
 *fill*         0x00042603        0x1 00
 .rodata.str1.4
                0x00042604      0xbfa /home/user/ti-ezsdk_dm816x-evm_5_05_01_04/component-sources/syslink_2_20_00_14/packages/ti/syslink/lib/syslink.a_release(NameServer.o)
                                0xe34 (size before relaxing)
 *fill*         0x000431fe        0x2 00
 .rodata.str1.4
                0x00043200      0x5b8 /home/user/ti-ezsdk_dm816x-evm_5_05_01_04/component-sources/syslink_2_20_00_14/packages/ti/syslink/lib/syslink.a_release(MultiProc.o)
                                0x644 (size before relaxing)
 .rodata.str1.4
                0x000437b8       0x87 /home/user/ti-ezsdk_dm816x-evm_5_05_01_04/component-sources/syslink_2_20_00_14/packages/ti/syslink/lib/syslink.a_release(Gate.o)
                                 0xb8 (size before relaxing)
 *fill*         0x0004383f        0x1 00
 .rodata.str1.4
                0x00043840       0x67 /home/user/ti-ezsdk_dm816x-evm_5_05_01_04/component-sources/syslink_2_20_00_14/packages/ti/syslink/lib/syslink.a_release(SysLink.o)
                                 0x68 (size before relaxing)
 *fill*         0x000438a7        0x1 00
 .rodata.str1.4
                0x000438a8      0x253 /home/user/ti-ezsdk_dm816x-evm_5_05_01_04/component-sources/syslink_2_20_00_14/packages/ti/syslink/lib/syslink.a_release(Cache.o)
                                0x280 (size before relaxing)
 *fill*         0x00043afb        0x1 00
 .rodata.str1.4
                0x00043afc      0x287 /home/user/ti-ezsdk_dm816x-evm_5_05_01_04/component-sources/syslink_2_20_00_14/packages/ti/syslink/lib/syslink.a_release(NameServerDrv.o)
                                0x2f8 (size before relaxing)
 *fill*         0x00043d83        0x1 00
 .rodata.str1.4
                0x00043d84      0x246 /home/user/ti-ezsdk_dm816x-evm_5_05_01_04/component-sources/syslink_2_20_00_14/packages/ti/syslink/lib/syslink.a_release(MultiProcDrv.o)
                                0x288 (size before relaxing)
 *fill*         0x00043fca        0x2 00
 .rodata.str1.4
                0x00043fcc       0xf0 /home/user/ti-ezsdk_dm816x-evm_5_05_01_04/component-sources/syslink_2_20_00_14/packages/ti/syslink/lib/syslink.a_release(TraceDrv.o)
                                0x138 (size before relaxing)
 .rodata.str1.4
                0x000440bc       0xef /home/user/ti-ezsdk_dm816x-evm_5_05_01_04/component-sources/syslink_2_20_00_14/packages/ti/syslink/lib/syslink.a_release(CacheDrv.o)
                                0x108 (size before relaxing)
 *fill*         0x000441ab        0x1 00
 .rodata.str1.4
                0x000441ac      0x820 /home/user/ti-ezsdk_dm816x-evm_5_05_01_04/component-sources/syslink_2_20_00_14/packages/ti/syslink/lib/syslink.a_release(MemoryOS.o)
                                0x940 (size before relaxing)
 .rodata.str1.4
                0x000449cc      0x312 /home/user/ti-ezsdk_dm816x-evm_5_05_01_04/component-sources/syslink_2_20_00_14/packages/ti/syslink/lib/syslink.a_release(OsalDrv.o)
                                0x3ac (size before relaxing)
 *fill*         0x00044cde        0x2 00
 .rodata.str1.4
                0x00044ce0      0x323 /home/user/ti-ezsdk_dm816x-evm_5_05_01_04/component-sources/syslink_2_20_00_14/packages/ti/syslink/lib/syslink.a_release(OsalMutex.o)
                                0x360 (size before relaxing)
 *fill*         0x00045003        0x1 00
 .rodata.str1.4
                0x00045004        0x3 /home/user/ti-ezsdk_dm816x-evm_5_05_01_04/component-sources/syslink_2_20_00_14/packages/ti/syslink/lib/syslink.a_release(OsalPrint.o)
                                  0x4 (size before relaxing)
 *fill*         0x00045007        0x1 00
 .rodata.str1.4
                0x00045008     0x1d3f /home/user/ti-ezsdk_dm816x-evm_5_05_01_04/component-sources/syslink_2_20_00_14/packages/ti/syslink/lib/syslink.a_release(ProcMgr.o)
                               0x1e88 (size before relaxing)
 *fill*         0x00046d47        0x1 00
 .rodata.str1.4
                0x00046d48      0x320 /home/user/ti-ezsdk_dm816x-evm_5_05_01_04/component-sources/syslink_2_20_00_14/packages/ti/syslink/lib/syslink.a_release(ProcMgrDrvUsr.o)
                                0x390 (size before relaxing)
 .rodata.str1.4
                0x00047068      0x5de /home/user/ti-ezsdk_dm816x-evm_5_05_01_04/component-sources/syslink_2_20_00_14/packages/ti/syslink/lib/syslink.a_release(FrameQ_common.o)
                                0x620 (size before relaxing)
 *fill*         0x00047646        0x2 00
 .rodata.str1.4
                0x00047648      0xa2a /home/user/ti-ezsdk_dm816x-evm_5_05_01_04/component-sources/syslink_2_20_00_14/packages/ti/syslink/lib/syslink.a_release(ListMP.o)
                                0xc20 (size before relaxing)
 *fill*         0x00048072        0x2 00
 .rodata.str1.4
                0x00048074      0xd48 /home/user/ti-ezsdk_dm816x-evm_5_05_01_04/component-sources/syslink_2_20_00_14/packages/ti/syslink/lib/syslink.a_release(MessageQ.o)
                                0xfc4 (size before relaxing)
 .rodata.str1.4
                0x00048dbc      0x22f /home/user/ti-ezsdk_dm816x-evm_5_05_01_04/component-sources/syslink_2_20_00_14/packages/ti/syslink/lib/syslink.a_release(ListMPDrv.o)
                                0x2a0 (size before relaxing)
 *fill*         0x00048feb        0x1 00
 .rodata.str1.4
                0x00048fec      0x254 /home/user/ti-ezsdk_dm816x-evm_5_05_01_04/component-sources/syslink_2_20_00_14/packages/ti/syslink/lib/syslink.a_release(MessageQDrv.o)
                                0x2e0 (size before relaxing)

.rodata1
 *(.rodata1)

.ARM.extab      0x00049240       0x18
 *(.ARM.extab* .gnu.linkonce.armextab.*)
 .ARM.extab     0x00049240        0x0 /home/user/CodeSourcery/Sourcery_G++_Lite/bin/../arm-none-linux-gnueabi/libc/usr/lib/crt1.o
 .ARM.extab     0x00049240        0x0 /home/user/CodeSourcery/Sourcery_G++_Lite/bin/../arm-none-linux-gnueabi/libc/usr/lib/crti.o
 .ARM.extab     0x00049240        0x0 /home/user/CodeSourcery/Sourcery_G++_Lite/bin/../lib/gcc/arm-none-linux-gnueabi/4.3.3/crtbegin.o
 .ARM.extab     0x00049240        0x0 bin/release/obj/main_host.ov5T
 .ARM.extab     0x00049240        0x0 bin/release/obj/App.ov5T
 .ARM.extab     0x00049240        0x0 /home/user/ti-ezsdk_dm816x-evm_5_05_01_04/component-sources/syslink_2_20_00_14/packages/ti/syslink/lib/syslink.a_release(SharedRegion.o)
 .ARM.extab     0x00049240        0x0 /home/user/ti-ezsdk_dm816x-evm_5_05_01_04/component-sources/syslink_2_20_00_14/packages/ti/syslink/lib/syslink.a_release(Notify.o)
 .ARM.extab     0x00049240        0x0 /home/user/ti-ezsdk_dm816x-evm_5_05_01_04/component-sources/syslink_2_20_00_14/packages/ti/syslink/lib/syslink.a_release(Ipc.o)
 .ARM.extab     0x00049240        0x0 /home/user/ti-ezsdk_dm816x-evm_5_05_01_04/component-sources/syslink_2_20_00_14/packages/ti/syslink/lib/syslink.a_release(RingIO.o)
 .ARM.extab     0x00049240        0x0 /home/user/ti-ezsdk_dm816x-evm_5_05_01_04/component-sources/syslink_2_20_00_14/packages/ti/syslink/lib/syslink.a_release(RingIOShm.o)
 .ARM.extab     0x00049240        0x0 /home/user/ti-ezsdk_dm816x-evm_5_05_01_04/component-sources/syslink_2_20_00_14/packages/ti/syslink/lib/syslink.a_release(FrameQ.o)
 .ARM.extab     0x00049240        0xc /home/user/ti-ezsdk_dm816x-evm_5_05_01_04/component-sources/syslink_2_20_00_14/packages/ti/syslink/lib/syslink.a_release(FrameQBufMgr.o)
 .ARM.extab     0x0004924c        0x0 /home/user/ti-ezsdk_dm816x-evm_5_05_01_04/component-sources/syslink_2_20_00_14/packages/ti/syslink/lib/syslink.a_release(ClientNotifyMgr.o)
 .ARM.extab     0x0004924c        0x0 /home/user/ti-ezsdk_dm816x-evm_5_05_01_04/component-sources/syslink_2_20_00_14/packages/ti/syslink/lib/syslink.a_release(HeapMemMP.o)
 .ARM.extab     0x0004924c        0x0 /home/user/ti-ezsdk_dm816x-evm_5_05_01_04/component-sources/syslink_2_20_00_14/packages/ti/syslink/lib/syslink.a_release(HeapBufMP.o)
 .ARM.extab     0x0004924c        0x0 /home/user/ti-ezsdk_dm816x-evm_5_05_01_04/component-sources/syslink_2_20_00_14/packages/ti/syslink/lib/syslink.a_release(GateMP.o)
 .ARM.extab     0x0004924c        0x0 /home/user/ti-ezsdk_dm816x-evm_5_05_01_04/component-sources/syslink_2_20_00_14/packages/ti/syslink/lib/syslink.a_release(SharedRegionDrv.o)
 .ARM.extab     0x0004924c        0x0 /home/user/ti-ezsdk_dm816x-evm_5_05_01_04/component-sources/syslink_2_20_00_14/packages/ti/syslink/lib/syslink.a_release(NotifyDrvUsr.o)
 .ARM.extab     0x0004924c        0x0 /home/user/ti-ezsdk_dm816x-evm_5_05_01_04/component-sources/syslink_2_20_00_14/packages/ti/syslink/lib/syslink.a_release(HeapBufMPDrv.o)
 .ARM.extab     0x0004924c        0x0 /home/user/ti-ezsdk_dm816x-evm_5_05_01_04/component-sources/syslink_2_20_00_14/packages/ti/syslink/lib/syslink.a_release(IpcDrv.o)
 .ARM.extab     0x0004924c        0x0 /home/user/ti-ezsdk_dm816x-evm_5_05_01_04/component-sources/syslink_2_20_00_14/packages/ti/syslink/lib/syslink.a_release(FrameQDrv.o)
 .ARM.extab     0x0004924c        0x0 /home/user/ti-ezsdk_dm816x-evm_5_05_01_04/component-sources/syslink_2_20_00_14/packages/ti/syslink/lib/syslink.a_release(FrameQBufMgrDrv.o)
 .ARM.extab     0x0004924c        0x0 /home/user/ti-ezsdk_dm816x-evm_5_05_01_04/component-sources/syslink_2_20_00_14/packages/ti/syslink/lib/syslink.a_release(ClientNotifyMgrDrv.o)
 .ARM.extab     0x0004924c        0x0 /home/user/ti-ezsdk_dm816x-evm_5_05_01_04/component-sources/syslink_2_20_00_14/packages/ti/syslink/lib/syslink.a_release(RingIODrv.o)
 .ARM.extab     0x0004924c        0x0 /home/user/ti-ezsdk_dm816x-evm_5_05_01_04/component-sources/syslink_2_20_00_14/packages/ti/syslink/lib/syslink.a_release(RingIOShmDrv.o)
 .ARM.extab     0x0004924c        0x0 /home/user/ti-ezsdk_dm816x-evm_5_05_01_04/component-sources/syslink_2_20_00_14/packages/ti/syslink/lib/syslink.a_release(HeapMemMPDrv.o)
 .ARM.extab     0x0004924c        0x0 /home/user/ti-ezsdk_dm816x-evm_5_05_01_04/component-sources/syslink_2_20_00_14/packages/ti/syslink/lib/syslink.a_release(GateMPDrv.o)
 .ARM.extab     0x0004924c        0x0 /home/user/ti-ezsdk_dm816x-evm_5_05_01_04/component-sources/syslink_2_20_00_14/packages/ti/syslink/lib/syslink.a_release(OsalProcess.o)
 .ARM.extab     0x0004924c        0x0 /home/user/ti-ezsdk_dm816x-evm_5_05_01_04/component-sources/syslink_2_20_00_14/packages/ti/syslink/lib/syslink.a_release(GateMutex.o)
 .ARM.extab     0x0004924c        0x0 /home/user/ti-ezsdk_dm816x-evm_5_05_01_04/component-sources/syslink_2_20_00_14/packages/ti/syslink/lib/syslink.a_release(Memory.o)
 .ARM.extab     0x0004924c        0x0 /home/user/ti-ezsdk_dm816x-evm_5_05_01_04/component-sources/syslink_2_20_00_14/packages/ti/syslink/lib/syslink.a_release(List.o)
 .ARM.extab     0x0004924c        0x0 /home/user/ti-ezsdk_dm816x-evm_5_05_01_04/component-sources/syslink_2_20_00_14/packages/ti/syslink/lib/syslink.a_release(String.o)
 .ARM.extab     0x0004924c        0x0 /home/user/ti-ezsdk_dm816x-evm_5_05_01_04/component-sources/syslink_2_20_00_14/packages/ti/syslink/lib/syslink.a_release(Trace.o)
 .ARM.extab     0x0004924c        0x0 /home/user/ti-ezsdk_dm816x-evm_5_05_01_04/component-sources/syslink_2_20_00_14/packages/ti/syslink/lib/syslink.a_release(NameServer.o)
 .ARM.extab     0x0004924c        0x0 /home/user/ti-ezsdk_dm816x-evm_5_05_01_04/component-sources/syslink_2_20_00_14/packages/ti/syslink/lib/syslink.a_release(MultiProc.o)
 .ARM.extab     0x0004924c        0x0 /home/user/ti-ezsdk_dm816x-evm_5_05_01_04/component-sources/syslink_2_20_00_14/packages/ti/syslink/lib/syslink.a_release(Gate.o)
 .ARM.extab     0x0004924c        0x0 /home/user/ti-ezsdk_dm816x-evm_5_05_01_04/component-sources/syslink_2_20_00_14/packages/ti/syslink/lib/syslink.a_release(SysLink.o)
 .ARM.extab     0x0004924c        0x0 /home/user/ti-ezsdk_dm816x-evm_5_05_01_04/component-sources/syslink_2_20_00_14/packages/ti/syslink/lib/syslink.a_release(Cache.o)
 .ARM.extab     0x0004924c        0x0 /home/user/ti-ezsdk_dm816x-evm_5_05_01_04/component-sources/syslink_2_20_00_14/packages/ti/syslink/lib/syslink.a_release(NameServerDrv.o)
 .ARM.extab     0x0004924c        0x0 /home/user/ti-ezsdk_dm816x-evm_5_05_01_04/component-sources/syslink_2_20_00_14/packages/ti/syslink/lib/syslink.a_release(MultiProcDrv.o)
 .ARM.extab     0x0004924c        0x0 /home/user/ti-ezsdk_dm816x-evm_5_05_01_04/component-sources/syslink_2_20_00_14/packages/ti/syslink/lib/syslink.a_release(TraceDrv.o)
 .ARM.extab     0x0004924c        0x0 /home/user/ti-ezsdk_dm816x-evm_5_05_01_04/component-sources/syslink_2_20_00_14/packages/ti/syslink/lib/syslink.a_release(CacheDrv.o)
 .ARM.extab     0x0004924c        0x0 /home/user/ti-ezsdk_dm816x-evm_5_05_01_04/component-sources/syslink_2_20_00_14/packages/ti/syslink/lib/syslink.a_release(MemoryOS.o)
 .ARM.extab     0x0004924c        0x0 /home/user/ti-ezsdk_dm816x-evm_5_05_01_04/component-sources/syslink_2_20_00_14/packages/ti/syslink/lib/syslink.a_release(OsalDrv.o)
 .ARM.extab     0x0004924c        0x0 /home/user/ti-ezsdk_dm816x-evm_5_05_01_04/component-sources/syslink_2_20_00_14/packages/ti/syslink/lib/syslink.a_release(OsalMutex.o)
 .ARM.extab     0x0004924c        0xc /home/user/ti-ezsdk_dm816x-evm_5_05_01_04/component-sources/syslink_2_20_00_14/packages/ti/syslink/lib/syslink.a_release(OsalPrint.o)
 .ARM.extab     0x00049258        0x0 /home/user/ti-ezsdk_dm816x-evm_5_05_01_04/component-sources/syslink_2_20_00_14/packages/ti/syslink/lib/syslink.a_release(ProcMgr.o)
 .ARM.extab     0x00049258        0x0 /home/user/ti-ezsdk_dm816x-evm_5_05_01_04/component-sources/syslink_2_20_00_14/packages/ti/syslink/lib/syslink.a_release(ProcMgrDrvUsr.o)
 .ARM.extab     0x00049258        0x0 /home/user/ti-ezsdk_dm816x-evm_5_05_01_04/component-sources/syslink_2_20_00_14/packages/ti/syslink/lib/syslink.a_release(FrameQ_common.o)
 .ARM.extab     0x00049258        0x0 /home/user/ti-ezsdk_dm816x-evm_5_05_01_04/component-sources/syslink_2_20_00_14/packages/ti/syslink/lib/syslink.a_release(ListMP.o)
 .ARM.extab     0x00049258        0x0 /home/user/ti-ezsdk_dm816x-evm_5_05_01_04/component-sources/syslink_2_20_00_14/packages/ti/syslink/lib/syslink.a_release(MessageQ.o)
 .ARM.extab     0x00049258        0x0 /home/user/ti-ezsdk_dm816x-evm_5_05_01_04/component-sources/syslink_2_20_00_14/packages/ti/syslink/lib/syslink.a_release(ListMPDrv.o)
 .ARM.extab     0x00049258        0x0 /home/user/ti-ezsdk_dm816x-evm_5_05_01_04/component-sources/syslink_2_20_00_14/packages/ti/syslink/lib/syslink.a_release(MessageQDrv.o)
 .ARM.extab     0x00049258        0x0 /home/user/CodeSourcery/Sourcery_G++_Lite/bin/../arm-none-linux-gnueabi/libc/usr/lib/libc_nonshared.a(elf-init.oS)
 .ARM.extab.init
                0x00049258        0x0 /home/user/CodeSourcery/Sourcery_G++_Lite/bin/../arm-none-linux-gnueabi/libc/usr/lib/crtn.o
 .ARM.extab.fini
                0x00049258        0x0 /home/user/CodeSourcery/Sourcery_G++_Lite/bin/../arm-none-linux-gnueabi/libc/usr/lib/crtn.o
                0x00049258                __exidx_start = .

.ARM.exidx      0x00049258      0xad8
 *(.ARM.exidx* .gnu.linkonce.armexidx.*)
 .ARM.exidx     0x00049268        0x0 /home/user/CodeSourcery/Sourcery_G++_Lite/bin/../arm-none-linux-gnueabi/libc/usr/lib/crt1.o
                                  0x8 (size before relaxing)
 .ARM.exidx     0x00049268        0x8 /home/user/CodeSourcery/Sourcery_G++_Lite/bin/../arm-none-linux-gnueabi/libc/usr/lib/crti.o
 .ARM.exidx     0x00049270        0x8 /home/user/CodeSourcery/Sourcery_G++_Lite/bin/../lib/gcc/arm-none-linux-gnueabi/4.3.3/crtbegin.o
                                 0x10 (size before relaxing)
 .ARM.exidx     0x00049278        0x8 bin/release/obj/main_host.ov5T
 .ARM.exidx     0x00049280       0x20 bin/release/obj/App.ov5T
 .ARM.exidx     0x000492a0       0xa8 /home/user/ti-ezsdk_dm816x-evm_5_05_01_04/component-sources/syslink_2_20_00_14/packages/ti/syslink/lib/syslink.a_release(SharedRegion.o)
                                 0xe0 (size before relaxing)
 .ARM.exidx     0x00049348       0x60 /home/user/ti-ezsdk_dm816x-evm_5_05_01_04/component-sources/syslink_2_20_00_14/packages/ti/syslink/lib/syslink.a_release(Notify.o)
                                 0x88 (size before relaxing)
 .ARM.exidx     0x000493a8       0x30 /home/user/ti-ezsdk_dm816x-evm_5_05_01_04/component-sources/syslink_2_20_00_14/packages/ti/syslink/lib/syslink.a_release(Ipc.o)
                                 0x38 (size before relaxing)
 .ARM.exidx     0x000493d8       0xb0 /home/user/ti-ezsdk_dm816x-evm_5_05_01_04/component-sources/syslink_2_20_00_14/packages/ti/syslink/lib/syslink.a_release(RingIO.o)
                                 0xf0 (size before relaxing)
 .ARM.exidx     0x00049488       0x10 /home/user/ti-ezsdk_dm816x-evm_5_05_01_04/component-sources/syslink_2_20_00_14/packages/ti/syslink/lib/syslink.a_release(RingIOShm.o)
                                 0x20 (size before relaxing)
 .ARM.exidx     0x00049498       0xd0 /home/user/ti-ezsdk_dm816x-evm_5_05_01_04/component-sources/syslink_2_20_00_14/packages/ti/syslink/lib/syslink.a_release(FrameQ.o)
                                 0xd8 (size before relaxing)
 .ARM.exidx     0x00049568       0xe8 /home/user/ti-ezsdk_dm816x-evm_5_05_01_04/component-sources/syslink_2_20_00_14/packages/ti/syslink/lib/syslink.a_release(FrameQBufMgr.o)
                                0x110 (size before relaxing)
 .ARM.exidx     0x00049650       0x90 /home/user/ti-ezsdk_dm816x-evm_5_05_01_04/component-sources/syslink_2_20_00_14/packages/ti/syslink/lib/syslink.a_release(ClientNotifyMgr.o)
                                 0x98 (size before relaxing)
 .ARM.exidx     0x000496e0       0x60 /home/user/ti-ezsdk_dm816x-evm_5_05_01_04/component-sources/syslink_2_20_00_14/packages/ti/syslink/lib/syslink.a_release(HeapMemMP.o)
                                 0x90 (size before relaxing)
 .ARM.exidx     0x00049740       0x50 /home/user/ti-ezsdk_dm816x-evm_5_05_01_04/component-sources/syslink_2_20_00_14/packages/ti/syslink/lib/syslink.a_release(HeapBufMP.o)
                                 0x88 (size before relaxing)
 .ARM.exidx     0x00049790       0x88 /home/user/ti-ezsdk_dm816x-evm_5_05_01_04/component-sources/syslink_2_20_00_14/packages/ti/syslink/lib/syslink.a_release(GateMP.o)
                                 0xa8 (size before relaxing)
 .ARM.exidx     0x00049818       0x10 /home/user/ti-ezsdk_dm816x-evm_5_05_01_04/component-sources/syslink_2_20_00_14/packages/ti/syslink/lib/syslink.a_release(SharedRegionDrv.o)
                                 0x18 (size before relaxing)
 .ARM.exidx     0x00049828       0x20 /home/user/ti-ezsdk_dm816x-evm_5_05_01_04/component-sources/syslink_2_20_00_14/packages/ti/syslink/lib/syslink.a_release(NotifyDrvUsr.o)
 .ARM.exidx     0x00049848       0x10 /home/user/ti-ezsdk_dm816x-evm_5_05_01_04/component-sources/syslink_2_20_00_14/packages/ti/syslink/lib/syslink.a_release(HeapBufMPDrv.o)
                                 0x18 (size before relaxing)
 .ARM.exidx     0x00049858       0x18 /home/user/ti-ezsdk_dm816x-evm_5_05_01_04/component-sources/syslink_2_20_00_14/packages/ti/syslink/lib/syslink.a_release(IpcDrv.o)
 .ARM.exidx     0x00049870        0x8 /home/user/ti-ezsdk_dm816x-evm_5_05_01_04/component-sources/syslink_2_20_00_14/packages/ti/syslink/lib/syslink.a_release(FrameQDrv.o)
                                 0x18 (size before relaxing)
 .ARM.exidx     0x00049878       0x10 /home/user/ti-ezsdk_dm816x-evm_5_05_01_04/component-sources/syslink_2_20_00_14/packages/ti/syslink/lib/syslink.a_release(FrameQBufMgrDrv.o)
                                 0x18 (size before relaxing)
 .ARM.exidx     0x00049888       0x10 /home/user/ti-ezsdk_dm816x-evm_5_05_01_04/component-sources/syslink_2_20_00_14/packages/ti/syslink/lib/syslink.a_release(ClientNotifyMgrDrv.o)
                                 0x18 (size before relaxing)
 .ARM.exidx     0x00049898       0x10 /home/user/ti-ezsdk_dm816x-evm_5_05_01_04/component-sources/syslink_2_20_00_14/packages/ti/syslink/lib/syslink.a_release(RingIODrv.o)
                                 0x18 (size before relaxing)
 .ARM.exidx     0x000498a8       0x10 /home/user/ti-ezsdk_dm816x-evm_5_05_01_04/component-sources/syslink_2_20_00_14/packages/ti/syslink/lib/syslink.a_release(RingIOShmDrv.o)
                                 0x18 (size before relaxing)
 .ARM.exidx     0x000498b8       0x10 /home/user/ti-ezsdk_dm816x-evm_5_05_01_04/component-sources/syslink_2_20_00_14/packages/ti/syslink/lib/syslink.a_release(HeapMemMPDrv.o)
                                 0x18 (size before relaxing)
 .ARM.exidx     0x000498c8       0x10 /home/user/ti-ezsdk_dm816x-evm_5_05_01_04/component-sources/syslink_2_20_00_14/packages/ti/syslink/lib/syslink.a_release(GateMPDrv.o)
                                 0x18 (size before relaxing)
 .ARM.exidx     0x000498d8        0x8 /home/user/ti-ezsdk_dm816x-evm_5_05_01_04/component-sources/syslink_2_20_00_14/packages/ti/syslink/lib/syslink.a_release(OsalProcess.o)
                                 0x10 (size before relaxing)
 .ARM.exidx     0x000498e0       0x10 /home/user/ti-ezsdk_dm816x-evm_5_05_01_04/component-sources/syslink_2_20_00_14/packages/ti/syslink/lib/syslink.a_release(GateMutex.o)
                                 0x30 (size before relaxing)
 .ARM.exidx     0x000498f0       0x38 /home/user/ti-ezsdk_dm816x-evm_5_05_01_04/component-sources/syslink_2_20_00_14/packages/ti/syslink/lib/syslink.a_release(Memory.o)
                                 0x40 (size before relaxing)
 .ARM.exidx     0x00049928       0x50 /home/user/ti-ezsdk_dm816x-evm_5_05_01_04/component-sources/syslink_2_20_00_14/packages/ti/syslink/lib/syslink.a_release(List.o)
                                 0x88 (size before relaxing)
 .ARM.exidx     0x00049978       0x38 /home/user/ti-ezsdk_dm816x-evm_5_05_01_04/component-sources/syslink_2_20_00_14/packages/ti/syslink/lib/syslink.a_release(String.o)
                                 0x40 (size before relaxing)
 .ARM.exidx     0x000499b0       0x40 /home/user/ti-ezsdk_dm816x-evm_5_05_01_04/component-sources/syslink_2_20_00_14/packages/ti/syslink/lib/syslink.a_release(Trace.o)
                                 0x48 (size before relaxing)
 .ARM.exidx     0x000499f0       0x60 /home/user/ti-ezsdk_dm816x-evm_5_05_01_04/component-sources/syslink_2_20_00_14/packages/ti/syslink/lib/syslink.a_release(NameServer.o)
                                 0x98 (size before relaxing)
 .ARM.exidx     0x00049a50       0x40 /home/user/ti-ezsdk_dm816x-evm_5_05_01_04/component-sources/syslink_2_20_00_14/packages/ti/syslink/lib/syslink.a_release(MultiProc.o)
                                 0x48 (size before relaxing)
 .ARM.exidx     0x00049a90        0x8 /home/user/ti-ezsdk_dm816x-evm_5_05_01_04/component-sources/syslink_2_20_00_14/packages/ti/syslink/lib/syslink.a_release(Gate.o)
                                 0x20 (size before relaxing)
 .ARM.exidx     0x00049a98        0x8 /home/user/ti-ezsdk_dm816x-evm_5_05_01_04/component-sources/syslink_2_20_00_14/packages/ti/syslink/lib/syslink.a_release(SysLink.o)
                                 0x10 (size before relaxing)
 .ARM.exidx     0x00049aa0       0x18 /home/user/ti-ezsdk_dm816x-evm_5_05_01_04/component-sources/syslink_2_20_00_14/packages/ti/syslink/lib/syslink.a_release(Cache.o)
                                 0x28 (size before relaxing)
 .ARM.exidx     0x00049ab8       0x10 /home/user/ti-ezsdk_dm816x-evm_5_05_01_04/component-sources/syslink_2_20_00_14/packages/ti/syslink/lib/syslink.a_release(NameServerDrv.o)
                                 0x18 (size before relaxing)
 .ARM.exidx     0x00049ac8        0x0 /home/user/ti-ezsdk_dm816x-evm_5_05_01_04/component-sources/syslink_2_20_00_14/packages/ti/syslink/lib/syslink.a_release(MultiProcDrv.o)
                                 0x18 (size before relaxing)
 .ARM.exidx     0x00049ac8        0x0 /home/user/ti-ezsdk_dm816x-evm_5_05_01_04/component-sources/syslink_2_20_00_14/packages/ti/syslink/lib/syslink.a_release(TraceDrv.o)
                                  0x8 (size before relaxing)
 .ARM.exidx     0x00049ac8        0x0 /home/user/ti-ezsdk_dm816x-evm_5_05_01_04/component-sources/syslink_2_20_00_14/packages/ti/syslink/lib/syslink.a_release(CacheDrv.o)
                                  0x8 (size before relaxing)
 .ARM.exidx     0x00049ac8       0x38 /home/user/ti-ezsdk_dm816x-evm_5_05_01_04/component-sources/syslink_2_20_00_14/packages/ti/syslink/lib/syslink.a_release(MemoryOS.o)
                                 0x50 (size before relaxing)
 .ARM.exidx     0x00049b00       0x20 /home/user/ti-ezsdk_dm816x-evm_5_05_01_04/component-sources/syslink_2_20_00_14/packages/ti/syslink/lib/syslink.a_release(OsalDrv.o)
                                 0x28 (size before relaxing)
 .ARM.exidx     0x00049b20       0x10 /home/user/ti-ezsdk_dm816x-evm_5_05_01_04/component-sources/syslink_2_20_00_14/packages/ti/syslink/lib/syslink.a_release(OsalMutex.o)
                                 0x20 (size before relaxing)
 .ARM.exidx     0x00049b30        0x8 /home/user/ti-ezsdk_dm816x-evm_5_05_01_04/component-sources/syslink_2_20_00_14/packages/ti/syslink/lib/syslink.a_release(OsalPrint.o)
 .ARM.exidx     0x00049b38       0x98 /home/user/ti-ezsdk_dm816x-evm_5_05_01_04/component-sources/syslink_2_20_00_14/packages/ti/syslink/lib/syslink.a_release(ProcMgr.o)
                                 0xe8 (size before relaxing)
 .ARM.exidx     0x00049bd0       0x10 /home/user/ti-ezsdk_dm816x-evm_5_05_01_04/component-sources/syslink_2_20_00_14/packages/ti/syslink/lib/syslink.a_release(ProcMgrDrvUsr.o)
                                 0x18 (size before relaxing)
 .ARM.exidx     0x00049be0       0x20 /home/user/ti-ezsdk_dm816x-evm_5_05_01_04/component-sources/syslink_2_20_00_14/packages/ti/syslink/lib/syslink.a_release(FrameQ_common.o)
                                 0x48 (size before relaxing)
 .ARM.exidx     0x00049c00       0x50 /home/user/ti-ezsdk_dm816x-evm_5_05_01_04/component-sources/syslink_2_20_00_14/packages/ti/syslink/lib/syslink.a_release(ListMP.o)
                                 0xa8 (size before relaxing)
 .ARM.exidx     0x00049c50       0x98 /home/user/ti-ezsdk_dm816x-evm_5_05_01_04/component-sources/syslink_2_20_00_14/packages/ti/syslink/lib/syslink.a_release(MessageQ.o)
                                 0xb8 (size before relaxing)
 .ARM.exidx     0x00049ce8       0x10 /home/user/ti-ezsdk_dm816x-evm_5_05_01_04/component-sources/syslink_2_20_00_14/packages/ti/syslink/lib/syslink.a_release(ListMPDrv.o)
                                 0x18 (size before relaxing)
 .ARM.exidx     0x00049cf8       0x10 /home/user/ti-ezsdk_dm816x-evm_5_05_01_04/component-sources/syslink_2_20_00_14/packages/ti/syslink/lib/syslink.a_release(MessageQDrv.o)
                                 0x18 (size before relaxing)
 .ARM.exidx     0x00049d08       0x18 /home/user/CodeSourcery/Sourcery_G++_Lite/bin/../arm-none-linux-gnueabi/libc/usr/lib/libc_nonshared.a(elf-init.oS)
                                 0x10 (size before relaxing)
 .ARM.exidx.init
                0x00049258       0x10 /home/user/CodeSourcery/Sourcery_G++_Lite/bin/../arm-none-linux-gnueabi/libc/usr/lib/crtn.o
                                  0x8 (size before relaxing)
 .ARM.exidx.fini
                0x00049d20       0x10 /home/user/CodeSourcery/Sourcery_G++_Lite/bin/../arm-none-linux-gnueabi/libc/usr/lib/crtn.o
                                  0x8 (size before relaxing)
                0x00049d30                __exidx_end = .

.eh_frame_hdr
 *(.eh_frame_hdr)

.eh_frame       0x00049d30        0x4
 *(.eh_frame)
 .eh_frame      0x00049d30        0x4 /home/user/CodeSourcery/Sourcery_G++_Lite/bin/../lib/gcc/arm-none-linux-gnueabi/4.3.3/crtend.o

.gcc_except_table
 *(.gcc_except_table .gcc_except_table.*)
                0x00049d34                . = (ALIGN (0x8000) - ((0x8000 - .) & 0x7fff))
                0x00052000                . = (0x8000 DATA_SEGMENT_ALIGN 0x1000)

.eh_frame
 *(.eh_frame)

.gcc_except_table
 *(.gcc_except_table .gcc_except_table.*)

.tdata
 *(.tdata .tdata.* .gnu.linkonce.td.*)

.tbss
 *(.tbss .tbss.* .gnu.linkonce.tb.*)
 *(.tcommon)

.preinit_array  0x00052000        0x0
                0x00052000                PROVIDE (__preinit_array_start, .)
 *(.preinit_array)
                0x00052000                PROVIDE (__preinit_array_end, .)

.init_array     0x00052000        0x4
                0x00052000                PROVIDE (__init_array_start, .)
 *(SORT(.init_array.*))
 *(.init_array)
 .init_array    0x00052000        0x4 /home/user/CodeSourcery/Sourcery_G++_Lite/bin/../lib/gcc/arm-none-linux-gnueabi/4.3.3/crtbegin.o
                0x00052004                PROVIDE (__init_array_end, .)

.fini_array     0x00052004        0x4
                0x00052004                PROVIDE (__fini_array_start, .)
 *(.fini_array)
 .fini_array    0x00052004        0x4 /home/user/CodeSourcery/Sourcery_G++_Lite/bin/../lib/gcc/arm-none-linux-gnueabi/4.3.3/crtbegin.o
 *(SORT(.fini_array.*))
                0x00052008                PROVIDE (__fini_array_end, .)

.ctors
 *crtbegin.o(.ctors)
 *crtbegin?.o(.ctors)
 *(EXCLUDE_FILE(*crtend?.o *crtend.o) .ctors)
 *(SORT(.ctors.*))
 *(.ctors)

.dtors
 *crtbegin.o(.dtors)
 *crtbegin?.o(.dtors)
 *(EXCLUDE_FILE(*crtend?.o *crtend.o) .dtors)
 *(SORT(.dtors.*))
 *(.dtors)

.jcr            0x00052008        0x4
 *(.jcr)
 .jcr           0x00052008        0x0 /home/user/CodeSourcery/Sourcery_G++_Lite/bin/../lib/gcc/arm-none-linux-gnueabi/4.3.3/crtbegin.o
 .jcr           0x00052008        0x4 /home/user/CodeSourcery/Sourcery_G++_Lite/bin/../lib/gcc/arm-none-linux-gnueabi/4.3.3/crtend.o

.data.rel.ro
 *(.data.rel.ro.local* .gnu.linkonce.d.rel.ro.local.*)
 *(.data.rel.ro* .gnu.linkonce.d.rel.ro.*)

.dynamic        0x0005200c      0x108
 *(.dynamic)
 .dynamic       0x0005200c      0x108 /home/user/CodeSourcery/Sourcery_G++_Lite/bin/../arm-none-linux-gnueabi/libc/usr/lib/crti.o
                0x0005200c                _DYNAMIC
                0x00052114                . = (. DATA_SEGMENT_RELRO_END 0x0)

.got            0x00052114       0xb8
 *(.got.plt)
 .got.plt       0x00052114       0xac /home/user/CodeSourcery/Sourcery_G++_Lite/bin/../arm-none-linux-gnueabi/libc/usr/lib/crti.o
                0x00052114                _GLOBAL_OFFSET_TABLE_
 *(.got)
 .got           0x000521c0        0xc /home/user/CodeSourcery/Sourcery_G++_Lite/bin/../arm-none-linux-gnueabi/libc/usr/lib/crti.o

.data           0x000521cc       0x54
                0x000521cc                __data_start = .
 *(.data .data.* .gnu.linkonce.d.*)
 .data          0x000521cc        0x4 /home/user/CodeSourcery/Sourcery_G++_Lite/bin/../arm-none-linux-gnueabi/libc/usr/lib/crt1.o
                0x000521cc                data_start
 .data          0x000521d0        0x0 /home/user/CodeSourcery/Sourcery_G++_Lite/bin/../arm-none-linux-gnueabi/libc/usr/lib/crti.o
 .data          0x000521d0        0x4 /home/user/CodeSourcery/Sourcery_G++_Lite/bin/../lib/gcc/arm-none-linux-gnueabi/4.3.3/crtbegin.o
                0x000521d0                __dso_handle
 .data          0x000521d4        0x0 bin/release/obj/main_host.ov5T
 .data          0x000521d4       0x10 bin/release/obj/App.ov5T
                0x000521d4                T_input
 .data          0x000521e4        0x4 /home/user/ti-ezsdk_dm816x-evm_5_05_01_04/component-sources/syslink_2_20_00_14/packages/ti/syslink/lib/syslink.a_release(SharedRegion.o)
                0x000521e4                SharedRegion_module
 .data          0x000521e8        0x0 /home/user/ti-ezsdk_dm816x-evm_5_05_01_04/component-sources/syslink_2_20_00_14/packages/ti/syslink/lib/syslink.a_release(Notify.o)
 .data          0x000521e8        0x0 /home/user/ti-ezsdk_dm816x-evm_5_05_01_04/component-sources/syslink_2_20_00_14/packages/ti/syslink/lib/syslink.a_release(Ipc.o)
 .data          0x000521e8        0x0 /home/user/ti-ezsdk_dm816x-evm_5_05_01_04/component-sources/syslink_2_20_00_14/packages/ti/syslink/lib/syslink.a_release(RingIO.o)
 .data          0x000521e8        0x0 /home/user/ti-ezsdk_dm816x-evm_5_05_01_04/component-sources/syslink_2_20_00_14/packages/ti/syslink/lib/syslink.a_release(RingIOShm.o)
 .data          0x000521e8        0x4 /home/user/ti-ezsdk_dm816x-evm_5_05_01_04/component-sources/syslink_2_20_00_14/packages/ti/syslink/lib/syslink.a_release(FrameQ.o)
                0x000521e8                FrameQ_module
 .data          0x000521ec        0x4 /home/user/ti-ezsdk_dm816x-evm_5_05_01_04/component-sources/syslink_2_20_00_14/packages/ti/syslink/lib/syslink.a_release(FrameQBufMgr.o)
                0x000521ec                FrameQBufMgr_module
 .data          0x000521f0        0x4 /home/user/ti-ezsdk_dm816x-evm_5_05_01_04/component-sources/syslink_2_20_00_14/packages/ti/syslink/lib/syslink.a_release(ClientNotifyMgr.o)
                0x000521f0                ClientNotifyMgr_module
 .data          0x000521f4        0x0 /home/user/ti-ezsdk_dm816x-evm_5_05_01_04/component-sources/syslink_2_20_00_14/packages/ti/syslink/lib/syslink.a_release(HeapMemMP.o)
 .data          0x000521f4        0x4 /home/user/ti-ezsdk_dm816x-evm_5_05_01_04/component-sources/syslink_2_20_00_14/packages/ti/syslink/lib/syslink.a_release(HeapBufMP.o)
                0x000521f4                HeapBufMP_module
 .data          0x000521f8        0x0 /home/user/ti-ezsdk_dm816x-evm_5_05_01_04/component-sources/syslink_2_20_00_14/packages/ti/syslink/lib/syslink.a_release(GateMP.o)
 .data          0x000521f8        0x0 /home/user/ti-ezsdk_dm816x-evm_5_05_01_04/component-sources/syslink_2_20_00_14/packages/ti/syslink/lib/syslink.a_release(SharedRegionDrv.o)
 .data          0x000521f8        0x4 /home/user/ti-ezsdk_dm816x-evm_5_05_01_04/component-sources/syslink_2_20_00_14/packages/ti/syslink/lib/syslink.a_release(NotifyDrvUsr.o)
 .data          0x000521fc        0x0 /home/user/ti-ezsdk_dm816x-evm_5_05_01_04/component-sources/syslink_2_20_00_14/packages/ti/syslink/lib/syslink.a_release(HeapBufMPDrv.o)
 .data          0x000521fc        0x0 /home/user/ti-ezsdk_dm816x-evm_5_05_01_04/component-sources/syslink_2_20_00_14/packages/ti/syslink/lib/syslink.a_release(IpcDrv.o)
 .data          0x000521fc        0x0 /home/user/ti-ezsdk_dm816x-evm_5_05_01_04/component-sources/syslink_2_20_00_14/packages/ti/syslink/lib/syslink.a_release(FrameQDrv.o)
 .data          0x000521fc        0x0 /home/user/ti-ezsdk_dm816x-evm_5_05_01_04/component-sources/syslink_2_20_00_14/packages/ti/syslink/lib/syslink.a_release(FrameQBufMgrDrv.o)
 .data          0x000521fc        0x0 /home/user/ti-ezsdk_dm816x-evm_5_05_01_04/component-sources/syslink_2_20_00_14/packages/ti/syslink/lib/syslink.a_release(ClientNotifyMgrDrv.o)
 .data          0x000521fc        0x0 /home/user/ti-ezsdk_dm816x-evm_5_05_01_04/component-sources/syslink_2_20_00_14/packages/ti/syslink/lib/syslink.a_release(RingIODrv.o)
 .data          0x000521fc        0x0 /home/user/ti-ezsdk_dm816x-evm_5_05_01_04/component-sources/syslink_2_20_00_14/packages/ti/syslink/lib/syslink.a_release(RingIOShmDrv.o)
 .data          0x000521fc        0x0 /home/user/ti-ezsdk_dm816x-evm_5_05_01_04/component-sources/syslink_2_20_00_14/packages/ti/syslink/lib/syslink.a_release(HeapMemMPDrv.o)
 .data          0x000521fc        0x0 /home/user/ti-ezsdk_dm816x-evm_5_05_01_04/component-sources/syslink_2_20_00_14/packages/ti/syslink/lib/syslink.a_release(GateMPDrv.o)
 .data          0x000521fc        0x0 /home/user/ti-ezsdk_dm816x-evm_5_05_01_04/component-sources/syslink_2_20_00_14/packages/ti/syslink/lib/syslink.a_release(OsalProcess.o)
 .data          0x000521fc        0x0 /home/user/ti-ezsdk_dm816x-evm_5_05_01_04/component-sources/syslink_2_20_00_14/packages/ti/syslink/lib/syslink.a_release(GateMutex.o)
 .data          0x000521fc        0x0 /home/user/ti-ezsdk_dm816x-evm_5_05_01_04/component-sources/syslink_2_20_00_14/packages/ti/syslink/lib/syslink.a_release(Memory.o)
 .data          0x000521fc        0x0 /home/user/ti-ezsdk_dm816x-evm_5_05_01_04/component-sources/syslink_2_20_00_14/packages/ti/syslink/lib/syslink.a_release(List.o)
 .data          0x000521fc        0x0 /home/user/ti-ezsdk_dm816x-evm_5_05_01_04/component-sources/syslink_2_20_00_14/packages/ti/syslink/lib/syslink.a_release(String.o)
 .data          0x000521fc        0x0 /home/user/ti-ezsdk_dm816x-evm_5_05_01_04/component-sources/syslink_2_20_00_14/packages/ti/syslink/lib/syslink.a_release(Trace.o)
 .data          0x000521fc        0x4 /home/user/ti-ezsdk_dm816x-evm_5_05_01_04/component-sources/syslink_2_20_00_14/packages/ti/syslink/lib/syslink.a_release(NameServer.o)
                0x000521fc                NameServer_module
 .data          0x00052200        0x4 /home/user/ti-ezsdk_dm816x-evm_5_05_01_04/component-sources/syslink_2_20_00_14/packages/ti/syslink/lib/syslink.a_release(MultiProc.o)
                0x00052200                MultiProc_module
 .data          0x00052204        0xc /home/user/ti-ezsdk_dm816x-evm_5_05_01_04/component-sources/syslink_2_20_00_14/packages/ti/syslink/lib/syslink.a_release(Gate.o)
                0x0005220c                Gate_systemHandle
                0x00052204                Gate_systemObject
 .data          0x00052210        0x0 /home/user/ti-ezsdk_dm816x-evm_5_05_01_04/component-sources/syslink_2_20_00_14/packages/ti/syslink/lib/syslink.a_release(SysLink.o)
 .data          0x00052210        0x0 /home/user/ti-ezsdk_dm816x-evm_5_05_01_04/component-sources/syslink_2_20_00_14/packages/ti/syslink/lib/syslink.a_release(Cache.o)
 .data          0x00052210        0x0 /home/user/ti-ezsdk_dm816x-evm_5_05_01_04/component-sources/syslink_2_20_00_14/packages/ti/syslink/lib/syslink.a_release(NameServerDrv.o)
 .data          0x00052210        0x0 /home/user/ti-ezsdk_dm816x-evm_5_05_01_04/component-sources/syslink_2_20_00_14/packages/ti/syslink/lib/syslink.a_release(MultiProcDrv.o)
 .data          0x00052210        0x0 /home/user/ti-ezsdk_dm816x-evm_5_05_01_04/component-sources/syslink_2_20_00_14/packages/ti/syslink/lib/syslink.a_release(TraceDrv.o)
 .data          0x00052210        0x0 /home/user/ti-ezsdk_dm816x-evm_5_05_01_04/component-sources/syslink_2_20_00_14/packages/ti/syslink/lib/syslink.a_release(CacheDrv.o)
 .data          0x00052210        0x0 /home/user/ti-ezsdk_dm816x-evm_5_05_01_04/component-sources/syslink_2_20_00_14/packages/ti/syslink/lib/syslink.a_release(MemoryOS.o)
 .data          0x00052210        0x4 /home/user/ti-ezsdk_dm816x-evm_5_05_01_04/component-sources/syslink_2_20_00_14/packages/ti/syslink/lib/syslink.a_release(OsalDrv.o)
 .data          0x00052214        0x0 /home/user/ti-ezsdk_dm816x-evm_5_05_01_04/component-sources/syslink_2_20_00_14/packages/ti/syslink/lib/syslink.a_release(OsalMutex.o)
 .data          0x00052214        0x0 /home/user/ti-ezsdk_dm816x-evm_5_05_01_04/component-sources/syslink_2_20_00_14/packages/ti/syslink/lib/syslink.a_release(OsalPrint.o)
 .data          0x00052214        0x0 /home/user/ti-ezsdk_dm816x-evm_5_05_01_04/component-sources/syslink_2_20_00_14/packages/ti/syslink/lib/syslink.a_release(ProcMgr.o)
 .data          0x00052214        0x4 /home/user/ti-ezsdk_dm816x-evm_5_05_01_04/component-sources/syslink_2_20_00_14/packages/ti/syslink/lib/syslink.a_release(ProcMgrDrvUsr.o)
 .data          0x00052218        0x0 /home/user/ti-ezsdk_dm816x-evm_5_05_01_04/component-sources/syslink_2_20_00_14/packages/ti/syslink/lib/syslink.a_release(FrameQ_common.o)
 .data          0x00052218        0x4 /home/user/ti-ezsdk_dm816x-evm_5_05_01_04/component-sources/syslink_2_20_00_14/packages/ti/syslink/lib/syslink.a_release(ListMP.o)
                0x00052218                ListMP_module
 .data          0x0005221c        0x4 /home/user/ti-ezsdk_dm816x-evm_5_05_01_04/component-sources/syslink_2_20_00_14/packages/ti/syslink/lib/syslink.a_release(MessageQ.o)
                0x0005221c                MessageQ_module
 .data          0x00052220        0x0 /home/user/ti-ezsdk_dm816x-evm_5_05_01_04/component-sources/syslink_2_20_00_14/packages/ti/syslink/lib/syslink.a_release(ListMPDrv.o)
 .data          0x00052220        0x0 /home/user/ti-ezsdk_dm816x-evm_5_05_01_04/component-sources/syslink_2_20_00_14/packages/ti/syslink/lib/syslink.a_release(MessageQDrv.o)
 .data          0x00052220        0x0 /home/user/CodeSourcery/Sourcery_G++_Lite/bin/../arm-none-linux-gnueabi/libc/usr/lib/libc_nonshared.a(elf-init.oS)
 .data          0x00052220        0x0 /home/user/CodeSourcery/Sourcery_G++_Lite/bin/../lib/gcc/arm-none-linux-gnueabi/4.3.3/libgcc.a(_udivsi3.o)
 .data          0x00052220        0x0 /home/user/CodeSourcery/Sourcery_G++_Lite/bin/../lib/gcc/arm-none-linux-gnueabi/4.3.3/libgcc.a(_arm_addsubdf3.o)
 .data          0x00052220        0x0 /home/user/CodeSourcery/Sourcery_G++_Lite/bin/../lib/gcc/arm-none-linux-gnueabi/4.3.3/libgcc.a(_dvmd_lnx.o)
 .data          0x00052220        0x0 /home/user/CodeSourcery/Sourcery_G++_Lite/bin/../lib/gcc/arm-none-linux-gnueabi/4.3.3/crtend.o
 .data          0x00052220        0x0 /home/user/CodeSourcery/Sourcery_G++_Lite/bin/../arm-none-linux-gnueabi/libc/usr/lib/crtn.o

.data1
 *(.data1)
                0x00052220                _edata = .
                0x00052220                PROVIDE (edata, .)
                0x00052220                __bss_start = .
                0x00052220                __bss_start__ = .

.bss            0x00052220    0x2d60c
 *(.dynbss)
 .dynbss        0x00000000        0x0 /home/user/CodeSourcery/Sourcery_G++_Lite/bin/../arm-none-linux-gnueabi/libc/usr/lib/crti.o
 *(.bss .bss.* .gnu.linkonce.b.*)
 .bss           0x00052220        0x0 /home/user/CodeSourcery/Sourcery_G++_Lite/bin/../arm-none-linux-gnueabi/libc/usr/lib/crt1.o
 .bss           0x00052220        0x0 /home/user/CodeSourcery/Sourcery_G++_Lite/bin/../arm-none-linux-gnueabi/libc/usr/lib/crti.o
 .bss           0x00052220        0x1 /home/user/CodeSourcery/Sourcery_G++_Lite/bin/../lib/gcc/arm-none-linux-gnueabi/4.3.3/crtbegin.o
 *fill*         0x00052221        0x3 00
 .bss           0x00052224        0x4 bin/release/obj/main_host.ov5T
 .bss           0x00052228       0x48 bin/release/obj/App.ov5T
 .bss           0x00052270      0x120 /home/user/ti-ezsdk_dm816x-evm_5_05_01_04/component-sources/syslink_2_20_00_14/packages/ti/syslink/lib/syslink.a_release(SharedRegion.o)
                0x00052270                SharedRegion_state
 .bss           0x00052390       0x14 /home/user/ti-ezsdk_dm816x-evm_5_05_01_04/component-sources/syslink_2_20_00_14/packages/ti/syslink/lib/syslink.a_release(Notify.o)
                0x00052390                Notify_state
 .bss           0x000523a4       0x34 /home/user/ti-ezsdk_dm816x-evm_5_05_01_04/component-sources/syslink_2_20_00_14/packages/ti/syslink/lib/syslink.a_release(Ipc.o)
                0x000523cc                SysLinkCfg_sysMemMap
                0x000523a4                Ipc_state
                0x000523d4                SysLink_params
 .bss           0x000523d8        0xc /home/user/ti-ezsdk_dm816x-evm_5_05_01_04/component-sources/syslink_2_20_00_14/packages/ti/syslink/lib/syslink.a_release(RingIO.o)
                0x000523d8                RingIO_state
 .bss           0x000523e4        0x8 /home/user/ti-ezsdk_dm816x-evm_5_05_01_04/component-sources/syslink_2_20_00_14/packages/ti/syslink/lib/syslink.a_release(RingIOShm.o)
                0x000523e4                RingIOShm_state
 .bss           0x000523ec       0x20 /home/user/ti-ezsdk_dm816x-evm_5_05_01_04/component-sources/syslink_2_20_00_14/packages/ti/syslink/lib/syslink.a_release(FrameQ.o)
                0x000523ec                FrameQ_module_obj
 .bss           0x0005240c       0x20 /home/user/ti-ezsdk_dm816x-evm_5_05_01_04/component-sources/syslink_2_20_00_14/packages/ti/syslink/lib/syslink.a_release(FrameQBufMgr.o)
                0x0005240c                FrameQBufMgr_module_obj
 .bss           0x0005242c    0x2d024 /home/user/ti-ezsdk_dm816x-evm_5_05_01_04/component-sources/syslink_2_20_00_14/packages/ti/syslink/lib/syslink.a_release(ClientNotifyMgr.o)
                0x0005242c                ClientNotifyMgr_module_obj
 .bss           0x0007f450        0x4 /home/user/ti-ezsdk_dm816x-evm_5_05_01_04/component-sources/syslink_2_20_00_14/packages/ti/syslink/lib/syslink.a_release(HeapMemMP.o)
                0x0007f450                HeapMemMP_state
 .bss           0x0007f454        0x4 /home/user/ti-ezsdk_dm816x-evm_5_05_01_04/component-sources/syslink_2_20_00_14/packages/ti/syslink/lib/syslink.a_release(HeapBufMP.o)
                0x0007f454                HeapBufMP_state
 .bss           0x0007f458       0x1c /home/user/ti-ezsdk_dm816x-evm_5_05_01_04/component-sources/syslink_2_20_00_14/packages/ti/syslink/lib/syslink.a_release(GateMP.o)
 .bss           0x0007f474        0x8 /home/user/ti-ezsdk_dm816x-evm_5_05_01_04/component-sources/syslink_2_20_00_14/packages/ti/syslink/lib/syslink.a_release(SharedRegionDrv.o)
 .bss           0x0007f47c        0xc /home/user/ti-ezsdk_dm816x-evm_5_05_01_04/component-sources/syslink_2_20_00_14/packages/ti/syslink/lib/syslink.a_release(NotifyDrvUsr.o)
 .bss           0x0007f488        0x8 /home/user/ti-ezsdk_dm816x-evm_5_05_01_04/component-sources/syslink_2_20_00_14/packages/ti/syslink/lib/syslink.a_release(HeapBufMPDrv.o)
 .bss           0x0007f490        0x8 /home/user/ti-ezsdk_dm816x-evm_5_05_01_04/component-sources/syslink_2_20_00_14/packages/ti/syslink/lib/syslink.a_release(IpcDrv.o)
 .bss           0x0007f498        0x8 /home/user/ti-ezsdk_dm816x-evm_5_05_01_04/component-sources/syslink_2_20_00_14/packages/ti/syslink/lib/syslink.a_release(FrameQDrv.o)
 .bss           0x0007f4a0        0x8 /home/user/ti-ezsdk_dm816x-evm_5_05_01_04/component-sources/syslink_2_20_00_14/packages/ti/syslink/lib/syslink.a_release(FrameQBufMgrDrv.o)
 .bss           0x0007f4a8        0x8 /home/user/ti-ezsdk_dm816x-evm_5_05_01_04/component-sources/syslink_2_20_00_14/packages/ti/syslink/lib/syslink.a_release(ClientNotifyMgrDrv.o)
 .bss           0x0007f4b0        0x8 /home/user/ti-ezsdk_dm816x-evm_5_05_01_04/component-sources/syslink_2_20_00_14/packages/ti/syslink/lib/syslink.a_release(RingIODrv.o)
 .bss           0x0007f4b8        0x8 /home/user/ti-ezsdk_dm816x-evm_5_05_01_04/component-sources/syslink_2_20_00_14/packages/ti/syslink/lib/syslink.a_release(RingIOShmDrv.o)
 .bss           0x0007f4c0        0x8 /home/user/ti-ezsdk_dm816x-evm_5_05_01_04/component-sources/syslink_2_20_00_14/packages/ti/syslink/lib/syslink.a_release(HeapMemMPDrv.o)
 .bss           0x0007f4c8        0x8 /home/user/ti-ezsdk_dm816x-evm_5_05_01_04/component-sources/syslink_2_20_00_14/packages/ti/syslink/lib/syslink.a_release(GateMPDrv.o)
 .bss           0x0007f4d0        0x0 /home/user/ti-ezsdk_dm816x-evm_5_05_01_04/component-sources/syslink_2_20_00_14/packages/ti/syslink/lib/syslink.a_release(OsalProcess.o)
 .bss           0x0007f4d0        0x4 /home/user/ti-ezsdk_dm816x-evm_5_05_01_04/component-sources/syslink_2_20_00_14/packages/ti/syslink/lib/syslink.a_release(GateMutex.o)
 .bss           0x0007f4d4        0x0 /home/user/ti-ezsdk_dm816x-evm_5_05_01_04/component-sources/syslink_2_20_00_14/packages/ti/syslink/lib/syslink.a_release(Memory.o)
 .bss           0x0007f4d4        0x0 /home/user/ti-ezsdk_dm816x-evm_5_05_01_04/component-sources/syslink_2_20_00_14/packages/ti/syslink/lib/syslink.a_release(List.o)
 .bss           0x0007f4d4        0x0 /home/user/ti-ezsdk_dm816x-evm_5_05_01_04/component-sources/syslink_2_20_00_14/packages/ti/syslink/lib/syslink.a_release(String.o)
 .bss           0x0007f4d4        0x4 /home/user/ti-ezsdk_dm816x-evm_5_05_01_04/component-sources/syslink_2_20_00_14/packages/ti/syslink/lib/syslink.a_release(Trace.o)
                0x0007f4d4                curTrace
 .bss           0x0007f4d8        0xc /home/user/ti-ezsdk_dm816x-evm_5_05_01_04/component-sources/syslink_2_20_00_14/packages/ti/syslink/lib/syslink.a_release(NameServer.o)
                0x0007f4d8                NameServer_state
 .bss           0x0007f4e4      0x298 /home/user/ti-ezsdk_dm816x-evm_5_05_01_04/component-sources/syslink_2_20_00_14/packages/ti/syslink/lib/syslink.a_release(MultiProc.o)
                0x0007f4e4                MultiProc_state
 .bss           0x0007f77c       0x18 /home/user/ti-ezsdk_dm816x-evm_5_05_01_04/component-sources/syslink_2_20_00_14/packages/ti/syslink/lib/syslink.a_release(Gate.o)
                0x0007f77c                staticMutex
 .bss           0x0007f794        0x0 /home/user/ti-ezsdk_dm816x-evm_5_05_01_04/component-sources/syslink_2_20_00_14/packages/ti/syslink/lib/syslink.a_release(SysLink.o)
 .bss           0x0007f794        0x0 /home/user/ti-ezsdk_dm816x-evm_5_05_01_04/component-sources/syslink_2_20_00_14/packages/ti/syslink/lib/syslink.a_release(Cache.o)
 .bss           0x0007f794        0x8 /home/user/ti-ezsdk_dm816x-evm_5_05_01_04/component-sources/syslink_2_20_00_14/packages/ti/syslink/lib/syslink.a_release(NameServerDrv.o)
 .bss           0x0007f79c        0x8 /home/user/ti-ezsdk_dm816x-evm_5_05_01_04/component-sources/syslink_2_20_00_14/packages/ti/syslink/lib/syslink.a_release(MultiProcDrv.o)
 .bss           0x0007f7a4        0x0 /home/user/ti-ezsdk_dm816x-evm_5_05_01_04/component-sources/syslink_2_20_00_14/packages/ti/syslink/lib/syslink.a_release(TraceDrv.o)
 .bss           0x0007f7a4        0x0 /home/user/ti-ezsdk_dm816x-evm_5_05_01_04/component-sources/syslink_2_20_00_14/packages/ti/syslink/lib/syslink.a_release(CacheDrv.o)
 .bss           0x0007f7a4       0x18 /home/user/ti-ezsdk_dm816x-evm_5_05_01_04/component-sources/syslink_2_20_00_14/packages/ti/syslink/lib/syslink.a_release(MemoryOS.o)
 .bss           0x0007f7bc        0x4 /home/user/ti-ezsdk_dm816x-evm_5_05_01_04/component-sources/syslink_2_20_00_14/packages/ti/syslink/lib/syslink.a_release(OsalDrv.o)
 .bss           0x0007f7c0        0x0 /home/user/ti-ezsdk_dm816x-evm_5_05_01_04/component-sources/syslink_2_20_00_14/packages/ti/syslink/lib/syslink.a_release(OsalMutex.o)
 .bss           0x0007f7c0        0x0 /home/user/ti-ezsdk_dm816x-evm_5_05_01_04/component-sources/syslink_2_20_00_14/packages/ti/syslink/lib/syslink.a_release(OsalPrint.o)
 .bss           0x0007f7c0       0x2c /home/user/ti-ezsdk_dm816x-evm_5_05_01_04/component-sources/syslink_2_20_00_14/packages/ti/syslink/lib/syslink.a_release(ProcMgr.o)
                0x0007f7c0                ProcMgr_state
 .bss           0x0007f7ec        0x4 /home/user/ti-ezsdk_dm816x-evm_5_05_01_04/component-sources/syslink_2_20_00_14/packages/ti/syslink/lib/syslink.a_release(ProcMgrDrvUsr.o)
 .bss           0x0007f7f0        0x0 /home/user/ti-ezsdk_dm816x-evm_5_05_01_04/component-sources/syslink_2_20_00_14/packages/ti/syslink/lib/syslink.a_release(FrameQ_common.o)
 .bss           0x0007f7f0        0x4 /home/user/ti-ezsdk_dm816x-evm_5_05_01_04/component-sources/syslink_2_20_00_14/packages/ti/syslink/lib/syslink.a_release(ListMP.o)
                0x0007f7f0                ListMP_state
 .bss           0x0007f7f4        0x4 /home/user/ti-ezsdk_dm816x-evm_5_05_01_04/component-sources/syslink_2_20_00_14/packages/ti/syslink/lib/syslink.a_release(MessageQ.o)
                0x0007f7f4                MessageQ_state
 .bss           0x0007f7f8        0x8 /home/user/ti-ezsdk_dm816x-evm_5_05_01_04/component-sources/syslink_2_20_00_14/packages/ti/syslink/lib/syslink.a_release(ListMPDrv.o)
 .bss           0x0007f800        0x8 /home/user/ti-ezsdk_dm816x-evm_5_05_01_04/component-sources/syslink_2_20_00_14/packages/ti/syslink/lib/syslink.a_release(MessageQDrv.o)
 .bss           0x0007f808        0x0 /home/user/CodeSourcery/Sourcery_G++_Lite/bin/../arm-none-linux-gnueabi/libc/usr/lib/libc_nonshared.a(elf-init.oS)
 .bss           0x0007f808        0x0 /home/user/CodeSourcery/Sourcery_G++_Lite/bin/../lib/gcc/arm-none-linux-gnueabi/4.3.3/libgcc.a(_udivsi3.o)
 .bss           0x0007f808        0x0 /home/user/CodeSourcery/Sourcery_G++_Lite/bin/../lib/gcc/arm-none-linux-gnueabi/4.3.3/libgcc.a(_arm_addsubdf3.o)
 .bss           0x0007f808        0x0 /home/user/CodeSourcery/Sourcery_G++_Lite/bin/../lib/gcc/arm-none-linux-gnueabi/4.3.3/libgcc.a(_dvmd_lnx.o)
 .bss           0x0007f808        0x0 /home/user/CodeSourcery/Sourcery_G++_Lite/bin/../lib/gcc/arm-none-linux-gnueabi/4.3.3/crtend.o
 .bss           0x0007f808        0x0 /home/user/CodeSourcery/Sourcery_G++_Lite/bin/../arm-none-linux-gnueabi/libc/usr/lib/crtn.o
 *(COMMON)
 COMMON         0x0007f808       0x10 bin/release/obj/App.ov5T
                0x0007f808                T_output
 COMMON         0x0007f818        0x4 /home/user/ti-ezsdk_dm816x-evm_5_05_01_04/component-sources/syslink_2_20_00_14/packages/ti/syslink/lib/syslink.a_release(NameServer.o)
                0x0007f818                NameServer_Object
 COMMON         0x0007f81c       0x10 /home/user/ti-ezsdk_dm816x-evm_5_05_01_04/component-sources/syslink_2_20_00_14/packages/ti/syslink/lib/syslink.a_release(MemoryOS.o)
                0x0007f81c                MemoryOS_state
                0x0007f82c                . = ALIGN ((. != 0x0)?0x4:0x1)
                0x0007f82c                _bss_end__ = .
                0x0007f82c                __bss_end__ = .
                0x0007f82c                . = ALIGN (0x4)
                0x0007f82c                . = ALIGN (0x4)
                0x0007f82c                __end__ = .
                0x0007f82c                _end = .
                0x0007f82c                PROVIDE (end, .)
                0x0007f82c                . = DATA_SEGMENT_END (.)

.stab
 *(.stab)

.stabstr
 *(.stabstr)

.stab.excl
 *(.stab.excl)

.stab.exclstr
 *(.stab.exclstr)

.stab.index
 *(.stab.index)

.stab.indexstr
 *(.stab.indexstr)

.ARM.attributes
                0x00000000       0x2d
 .ARM.attributes
                0x00000000       0x2d /home/user/CodeSourcery/Sourcery_G++_Lite/bin/../arm-none-linux-gnueabi/libc/usr/lib/crt1.o
 .ARM.attributes
                0x0000002d       0x31 /home/user/CodeSourcery/Sourcery_G++_Lite/bin/../arm-none-linux-gnueabi/libc/usr/lib/crti.o
 .ARM.attributes
                0x0000005e       0x31 /home/user/CodeSourcery/Sourcery_G++_Lite/bin/../lib/gcc/arm-none-linux-gnueabi/4.3.3/crtbegin.o
 .ARM.attributes
                0x0000008f       0x2a bin/release/obj/main_host.ov5T
 .ARM.attributes
                0x000000b9       0x2a bin/release/obj/App.ov5T
 .ARM.attributes
                0x000000e3       0x31 /home/user/ti-ezsdk_dm816x-evm_5_05_01_04/component-sources/syslink_2_20_00_14/packages/ti/syslink/lib/syslink.a_release(SharedRegion.o)
 .ARM.attributes
                0x00000114       0x31 /home/user/ti-ezsdk_dm816x-evm_5_05_01_04/component-sources/syslink_2_20_00_14/packages/ti/syslink/lib/syslink.a_release(Notify.o)
 .ARM.attributes
                0x00000145       0x31 /home/user/ti-ezsdk_dm816x-evm_5_05_01_04/component-sources/syslink_2_20_00_14/packages/ti/syslink/lib/syslink.a_release(Ipc.o)
 .ARM.attributes
                0x00000176       0x31 /home/user/ti-ezsdk_dm816x-evm_5_05_01_04/component-sources/syslink_2_20_00_14/packages/ti/syslink/lib/syslink.a_release(RingIO.o)
 .ARM.attributes
                0x000001a7       0x31 /home/user/ti-ezsdk_dm816x-evm_5_05_01_04/component-sources/syslink_2_20_00_14/packages/ti/syslink/lib/syslink.a_release(RingIOShm.o)
 .ARM.attributes
                0x000001d8       0x31 /home/user/ti-ezsdk_dm816x-evm_5_05_01_04/component-sources/syslink_2_20_00_14/packages/ti/syslink/lib/syslink.a_release(FrameQ.o)
 .ARM.attributes
                0x00000209       0x31 /home/user/ti-ezsdk_dm816x-evm_5_05_01_04/component-sources/syslink_2_20_00_14/packages/ti/syslink/lib/syslink.a_release(FrameQBufMgr.o)
 .ARM.attributes
                0x0000023a       0x31 /home/user/ti-ezsdk_dm816x-evm_5_05_01_04/component-sources/syslink_2_20_00_14/packages/ti/syslink/lib/syslink.a_release(ClientNotifyMgr.o)
 .ARM.attributes
                0x0000026b       0x31 /home/user/ti-ezsdk_dm816x-evm_5_05_01_04/component-sources/syslink_2_20_00_14/packages/ti/syslink/lib/syslink.a_release(HeapMemMP.o)
 .ARM.attributes
                0x0000029c       0x31 /home/user/ti-ezsdk_dm816x-evm_5_05_01_04/component-sources/syslink_2_20_00_14/packages/ti/syslink/lib/syslink.a_release(HeapBufMP.o)
 .ARM.attributes
                0x000002cd       0x31 /home/user/ti-ezsdk_dm816x-evm_5_05_01_04/component-sources/syslink_2_20_00_14/packages/ti/syslink/lib/syslink.a_release(GateMP.o)
 .ARM.attributes
                0x000002fe       0x31 /home/user/ti-ezsdk_dm816x-evm_5_05_01_04/component-sources/syslink_2_20_00_14/packages/ti/syslink/lib/syslink.a_release(SharedRegionDrv.o)
 .ARM.attributes
                0x0000032f       0x31 /home/user/ti-ezsdk_dm816x-evm_5_05_01_04/component-sources/syslink_2_20_00_14/packages/ti/syslink/lib/syslink.a_release(NotifyDrvUsr.o)
 .ARM.attributes
                0x00000360       0x31 /home/user/ti-ezsdk_dm816x-evm_5_05_01_04/component-sources/syslink_2_20_00_14/packages/ti/syslink/lib/syslink.a_release(HeapBufMPDrv.o)
 .ARM.attributes
                0x00000391       0x31 /home/user/ti-ezsdk_dm816x-evm_5_05_01_04/component-sources/syslink_2_20_00_14/packages/ti/syslink/lib/syslink.a_release(IpcDrv.o)
 .ARM.attributes
                0x000003c2       0x31 /home/user/ti-ezsdk_dm816x-evm_5_05_01_04/component-sources/syslink_2_20_00_14/packages/ti/syslink/lib/syslink.a_release(FrameQDrv.o)
 .ARM.attributes
                0x000003f3       0x31 /home/user/ti-ezsdk_dm816x-evm_5_05_01_04/component-sources/syslink_2_20_00_14/packages/ti/syslink/lib/syslink.a_release(FrameQBufMgrDrv.o)
 .ARM.attributes
                0x00000424       0x31 /home/user/ti-ezsdk_dm816x-evm_5_05_01_04/component-sources/syslink_2_20_00_14/packages/ti/syslink/lib/syslink.a_release(ClientNotifyMgrDrv.o)
 .ARM.attributes
                0x00000455       0x31 /home/user/ti-ezsdk_dm816x-evm_5_05_01_04/component-sources/syslink_2_20_00_14/packages/ti/syslink/lib/syslink.a_release(RingIODrv.o)
 .ARM.attributes
                0x00000486       0x31 /home/user/ti-ezsdk_dm816x-evm_5_05_01_04/component-sources/syslink_2_20_00_14/packages/ti/syslink/lib/syslink.a_release(RingIOShmDrv.o)
 .ARM.attributes
                0x000004b7       0x31 /home/user/ti-ezsdk_dm816x-evm_5_05_01_04/component-sources/syslink_2_20_00_14/packages/ti/syslink/lib/syslink.a_release(HeapMemMPDrv.o)
 .ARM.attributes
                0x000004e8       0x31 /home/user/ti-ezsdk_dm816x-evm_5_05_01_04/component-sources/syslink_2_20_00_14/packages/ti/syslink/lib/syslink.a_release(GateMPDrv.o)
 .ARM.attributes
                0x00000519       0x31 /home/user/ti-ezsdk_dm816x-evm_5_05_01_04/component-sources/syslink_2_20_00_14/packages/ti/syslink/lib/syslink.a_release(OsalProcess.o)
 .ARM.attributes
                0x0000054a       0x31 /home/user/ti-ezsdk_dm816x-evm_5_05_01_04/component-sources/syslink_2_20_00_14/packages/ti/syslink/lib/syslink.a_release(GateMutex.o)
 .ARM.attributes
                0x0000057b       0x31 /home/user/ti-ezsdk_dm816x-evm_5_05_01_04/component-sources/syslink_2_20_00_14/packages/ti/syslink/lib/syslink.a_release(Memory.o)
 .ARM.attributes
                0x000005ac       0x31 /home/user/ti-ezsdk_dm816x-evm_5_05_01_04/component-sources/syslink_2_20_00_14/packages/ti/syslink/lib/syslink.a_release(List.o)
 .ARM.attributes
                0x000005dd       0x31 /home/user/ti-ezsdk_dm816x-evm_5_05_01_04/component-sources/syslink_2_20_00_14/packages/ti/syslink/lib/syslink.a_release(String.o)
 .ARM.attributes
                0x0000060e       0x31 /home/user/ti-ezsdk_dm816x-evm_5_05_01_04/component-sources/syslink_2_20_00_14/packages/ti/syslink/lib/syslink.a_release(Trace.o)
 .ARM.attributes
                0x0000063f       0x31 /home/user/ti-ezsdk_dm816x-evm_5_05_01_04/component-sources/syslink_2_20_00_14/packages/ti/syslink/lib/syslink.a_release(NameServer.o)
 .ARM.attributes
                0x00000670       0x31 /home/user/ti-ezsdk_dm816x-evm_5_05_01_04/component-sources/syslink_2_20_00_14/packages/ti/syslink/lib/syslink.a_release(MultiProc.o)
 .ARM.attributes
                0x000006a1       0x31 /home/user/ti-ezsdk_dm816x-evm_5_05_01_04/component-sources/syslink_2_20_00_14/packages/ti/syslink/lib/syslink.a_release(Gate.o)
 .ARM.attributes
                0x000006d2       0x31 /home/user/ti-ezsdk_dm816x-evm_5_05_01_04/component-sources/syslink_2_20_00_14/packages/ti/syslink/lib/syslink.a_release(SysLink.o)
 .ARM.attributes
                0x00000703       0x31 /home/user/ti-ezsdk_dm816x-evm_5_05_01_04/component-sources/syslink_2_20_00_14/packages/ti/syslink/lib/syslink.a_release(Cache.o)
 .ARM.attributes
                0x00000734       0x31 /home/user/ti-ezsdk_dm816x-evm_5_05_01_04/component-sources/syslink_2_20_00_14/packages/ti/syslink/lib/syslink.a_release(NameServerDrv.o)
 .ARM.attributes
                0x00000765       0x31 /home/user/ti-ezsdk_dm816x-evm_5_05_01_04/component-sources/syslink_2_20_00_14/packages/ti/syslink/lib/syslink.a_release(MultiProcDrv.o)
 .ARM.attributes
                0x00000796       0x31 /home/user/ti-ezsdk_dm816x-evm_5_05_01_04/component-sources/syslink_2_20_00_14/packages/ti/syslink/lib/syslink.a_release(TraceDrv.o)
 .ARM.attributes
                0x000007c7       0x31 /home/user/ti-ezsdk_dm816x-evm_5_05_01_04/component-sources/syslink_2_20_00_14/packages/ti/syslink/lib/syslink.a_release(CacheDrv.o)
 .ARM.attributes
                0x000007f8       0x31 /home/user/ti-ezsdk_dm816x-evm_5_05_01_04/component-sources/syslink_2_20_00_14/packages/ti/syslink/lib/syslink.a_release(MemoryOS.o)
 .ARM.attributes
                0x00000829       0x31 /home/user/ti-ezsdk_dm816x-evm_5_05_01_04/component-sources/syslink_2_20_00_14/packages/ti/syslink/lib/syslink.a_release(OsalDrv.o)
 .ARM.attributes
                0x0000085a       0x31 /home/user/ti-ezsdk_dm816x-evm_5_05_01_04/component-sources/syslink_2_20_00_14/packages/ti/syslink/lib/syslink.a_release(OsalMutex.o)
 .ARM.attributes
                0x0000088b       0x31 /home/user/ti-ezsdk_dm816x-evm_5_05_01_04/component-sources/syslink_2_20_00_14/packages/ti/syslink/lib/syslink.a_release(OsalPrint.o)
 .ARM.attributes
                0x000008bc       0x31 /home/user/ti-ezsdk_dm816x-evm_5_05_01_04/component-sources/syslink_2_20_00_14/packages/ti/syslink/lib/syslink.a_release(ProcMgr.o)
 .ARM.attributes
                0x000008ed       0x31 /home/user/ti-ezsdk_dm816x-evm_5_05_01_04/component-sources/syslink_2_20_00_14/packages/ti/syslink/lib/syslink.a_release(ProcMgrDrvUsr.o)
 .ARM.attributes
                0x0000091e       0x31 /home/user/ti-ezsdk_dm816x-evm_5_05_01_04/component-sources/syslink_2_20_00_14/packages/ti/syslink/lib/syslink.a_release(FrameQ_common.o)
 .ARM.attributes
                0x0000094f       0x31 /home/user/ti-ezsdk_dm816x-evm_5_05_01_04/component-sources/syslink_2_20_00_14/packages/ti/syslink/lib/syslink.a_release(ListMP.o)
 .ARM.attributes
                0x00000980       0x31 /home/user/ti-ezsdk_dm816x-evm_5_05_01_04/component-sources/syslink_2_20_00_14/packages/ti/syslink/lib/syslink.a_release(MessageQ.o)
 .ARM.attributes
                0x000009b1       0x31 /home/user/ti-ezsdk_dm816x-evm_5_05_01_04/component-sources/syslink_2_20_00_14/packages/ti/syslink/lib/syslink.a_release(ListMPDrv.o)
 .ARM.attributes
                0x000009e2       0x31 /home/user/ti-ezsdk_dm816x-evm_5_05_01_04/component-sources/syslink_2_20_00_14/packages/ti/syslink/lib/syslink.a_release(MessageQDrv.o)
 .ARM.attributes
                0x00000a13       0x31 /home/user/CodeSourcery/Sourcery_G++_Lite/bin/../arm-none-linux-gnueabi/libc/usr/lib/libc_nonshared.a(elf-init.oS)
 .ARM.attributes
                0x00000a44       0x16 /home/user/CodeSourcery/Sourcery_G++_Lite/bin/../lib/gcc/arm-none-linux-gnueabi/4.3.3/libgcc.a(_udivsi3.o)
 .ARM.attributes
                0x00000a5a       0x16 /home/user/CodeSourcery/Sourcery_G++_Lite/bin/../lib/gcc/arm-none-linux-gnueabi/4.3.3/libgcc.a(_arm_addsubdf3.o)
 .ARM.attributes
                0x00000a70       0x14 /home/user/CodeSourcery/Sourcery_G++_Lite/bin/../lib/gcc/arm-none-linux-gnueabi/4.3.3/libgcc.a(_dvmd_lnx.o)
 .ARM.attributes
                0x00000a84       0x31 /home/user/CodeSourcery/Sourcery_G++_Lite/bin/../lib/gcc/arm-none-linux-gnueabi/4.3.3/crtend.o
 .ARM.attributes
                0x00000ab5       0x31 /home/user/CodeSourcery/Sourcery_G++_Lite/bin/../arm-none-linux-gnueabi/libc/usr/lib/crtn.o

.comment        0x00000000      0x866
 *(.comment)
 .comment       0x00000000       0x2b bin/release/obj/main_host.ov5T
 .comment       0x0000002b       0x2b bin/release/obj/App.ov5T
 .comment       0x00000056       0x2b /home/user/ti-ezsdk_dm816x-evm_5_05_01_04/component-sources/syslink_2_20_00_14/packages/ti/syslink/lib/syslink.a_release(SharedRegion.o)
 .comment       0x00000081       0x2b /home/user/ti-ezsdk_dm816x-evm_5_05_01_04/component-sources/syslink_2_20_00_14/packages/ti/syslink/lib/syslink.a_release(Notify.o)
 .comment       0x000000ac       0x2b /home/user/ti-ezsdk_dm816x-evm_5_05_01_04/component-sources/syslink_2_20_00_14/packages/ti/syslink/lib/syslink.a_release(Ipc.o)
 .comment       0x000000d7       0x2b /home/user/ti-ezsdk_dm816x-evm_5_05_01_04/component-sources/syslink_2_20_00_14/packages/ti/syslink/lib/syslink.a_release(RingIO.o)
 .comment       0x00000102       0x2b /home/user/ti-ezsdk_dm816x-evm_5_05_01_04/component-sources/syslink_2_20_00_14/packages/ti/syslink/lib/syslink.a_release(RingIOShm.o)
 .comment       0x0000012d       0x2b /home/user/ti-ezsdk_dm816x-evm_5_05_01_04/component-sources/syslink_2_20_00_14/packages/ti/syslink/lib/syslink.a_release(FrameQ.o)
 .comment       0x00000158       0x2b /home/user/ti-ezsdk_dm816x-evm_5_05_01_04/component-sources/syslink_2_20_00_14/packages/ti/syslink/lib/syslink.a_release(FrameQBufMgr.o)
 .comment       0x00000183       0x2b /home/user/ti-ezsdk_dm816x-evm_5_05_01_04/component-sources/syslink_2_20_00_14/packages/ti/syslink/lib/syslink.a_release(ClientNotifyMgr.o)
 .comment       0x000001ae       0x2b /home/user/ti-ezsdk_dm816x-evm_5_05_01_04/component-sources/syslink_2_20_00_14/packages/ti/syslink/lib/syslink.a_release(HeapMemMP.o)
 .comment       0x000001d9       0x2b /home/user/ti-ezsdk_dm816x-evm_5_05_01_04/component-sources/syslink_2_20_00_14/packages/ti/syslink/lib/syslink.a_release(HeapBufMP.o)
 .comment       0x00000204       0x2b /home/user/ti-ezsdk_dm816x-evm_5_05_01_04/component-sources/syslink_2_20_00_14/packages/ti/syslink/lib/syslink.a_release(GateMP.o)
 .comment       0x0000022f       0x2b /home/user/ti-ezsdk_dm816x-evm_5_05_01_04/component-sources/syslink_2_20_00_14/packages/ti/syslink/lib/syslink.a_release(SharedRegionDrv.o)
 .comment       0x0000025a       0x2b /home/user/ti-ezsdk_dm816x-evm_5_05_01_04/component-sources/syslink_2_20_00_14/packages/ti/syslink/lib/syslink.a_release(NotifyDrvUsr.o)
 .comment       0x00000285       0x2b /home/user/ti-ezsdk_dm816x-evm_5_05_01_04/component-sources/syslink_2_20_00_14/packages/ti/syslink/lib/syslink.a_release(HeapBufMPDrv.o)
 .comment       0x000002b0       0x2b /home/user/ti-ezsdk_dm816x-evm_5_05_01_04/component-sources/syslink_2_20_00_14/packages/ti/syslink/lib/syslink.a_release(IpcDrv.o)
 .comment       0x000002db       0x2b /home/user/ti-ezsdk_dm816x-evm_5_05_01_04/component-sources/syslink_2_20_00_14/packages/ti/syslink/lib/syslink.a_release(FrameQDrv.o)
 .comment       0x00000306       0x2b /home/user/ti-ezsdk_dm816x-evm_5_05_01_04/component-sources/syslink_2_20_00_14/packages/ti/syslink/lib/syslink.a_release(FrameQBufMgrDrv.o)
 .comment       0x00000331       0x2b /home/user/ti-ezsdk_dm816x-evm_5_05_01_04/component-sources/syslink_2_20_00_14/packages/ti/syslink/lib/syslink.a_release(ClientNotifyMgrDrv.o)
 .comment       0x0000035c       0x2b /home/user/ti-ezsdk_dm816x-evm_5_05_01_04/component-sources/syslink_2_20_00_14/packages/ti/syslink/lib/syslink.a_release(RingIODrv.o)
 .comment       0x00000387       0x2b /home/user/ti-ezsdk_dm816x-evm_5_05_01_04/component-sources/syslink_2_20_00_14/packages/ti/syslink/lib/syslink.a_release(RingIOShmDrv.o)
 .comment       0x000003b2       0x2b /home/user/ti-ezsdk_dm816x-evm_5_05_01_04/component-sources/syslink_2_20_00_14/packages/ti/syslink/lib/syslink.a_release(HeapMemMPDrv.o)
 .comment       0x000003dd       0x2b /home/user/ti-ezsdk_dm816x-evm_5_05_01_04/component-sources/syslink_2_20_00_14/packages/ti/syslink/lib/syslink.a_release(GateMPDrv.o)
 .comment       0x00000408       0x2b /home/user/ti-ezsdk_dm816x-evm_5_05_01_04/component-sources/syslink_2_20_00_14/packages/ti/syslink/lib/syslink.a_release(OsalProcess.o)
 .comment       0x00000433       0x2b /home/user/ti-ezsdk_dm816x-evm_5_05_01_04/component-sources/syslink_2_20_00_14/packages/ti/syslink/lib/syslink.a_release(GateMutex.o)
 .comment       0x0000045e       0x2b /home/user/ti-ezsdk_dm816x-evm_5_05_01_04/component-sources/syslink_2_20_00_14/packages/ti/syslink/lib/syslink.a_release(Memory.o)
 .comment       0x00000489       0x2b /home/user/ti-ezsdk_dm816x-evm_5_05_01_04/component-sources/syslink_2_20_00_14/packages/ti/syslink/lib/syslink.a_release(List.o)
 .comment       0x000004b4       0x2b /home/user/ti-ezsdk_dm816x-evm_5_05_01_04/component-sources/syslink_2_20_00_14/packages/ti/syslink/lib/syslink.a_release(String.o)
 .comment       0x000004df       0x2b /home/user/ti-ezsdk_dm816x-evm_5_05_01_04/component-sources/syslink_2_20_00_14/packages/ti/syslink/lib/syslink.a_release(Trace.o)
 .comment       0x0000050a       0x2b /home/user/ti-ezsdk_dm816x-evm_5_05_01_04/component-sources/syslink_2_20_00_14/packages/ti/syslink/lib/syslink.a_release(NameServer.o)
 .comment       0x00000535       0x2b /home/user/ti-ezsdk_dm816x-evm_5_05_01_04/component-sources/syslink_2_20_00_14/packages/ti/syslink/lib/syslink.a_release(MultiProc.o)
 .comment       0x00000560       0x2b /home/user/ti-ezsdk_dm816x-evm_5_05_01_04/component-sources/syslink_2_20_00_14/packages/ti/syslink/lib/syslink.a_release(Gate.o)
 .comment       0x0000058b       0x2b /home/user/ti-ezsdk_dm816x-evm_5_05_01_04/component-sources/syslink_2_20_00_14/packages/ti/syslink/lib/syslink.a_release(SysLink.o)
 .comment       0x000005b6       0x2b /home/user/ti-ezsdk_dm816x-evm_5_05_01_04/component-sources/syslink_2_20_00_14/packages/ti/syslink/lib/syslink.a_release(Cache.o)
 .comment       0x000005e1       0x2b /home/user/ti-ezsdk_dm816x-evm_5_05_01_04/component-sources/syslink_2_20_00_14/packages/ti/syslink/lib/syslink.a_release(NameServerDrv.o)
 .comment       0x0000060c       0x2b /home/user/ti-ezsdk_dm816x-evm_5_05_01_04/component-sources/syslink_2_20_00_14/packages/ti/syslink/lib/syslink.a_release(MultiProcDrv.o)
 .comment       0x00000637       0x2b /home/user/ti-ezsdk_dm816x-evm_5_05_01_04/component-sources/syslink_2_20_00_14/packages/ti/syslink/lib/syslink.a_release(TraceDrv.o)
 .comment       0x00000662       0x2b /home/user/ti-ezsdk_dm816x-evm_5_05_01_04/component-sources/syslink_2_20_00_14/packages/ti/syslink/lib/syslink.a_release(CacheDrv.o)
 .comment       0x0000068d       0x2b /home/user/ti-ezsdk_dm816x-evm_5_05_01_04/component-sources/syslink_2_20_00_14/packages/ti/syslink/lib/syslink.a_release(MemoryOS.o)
 .comment       0x000006b8       0x2b /home/user/ti-ezsdk_dm816x-evm_5_05_01_04/component-sources/syslink_2_20_00_14/packages/ti/syslink/lib/syslink.a_release(OsalDrv.o)
 .comment       0x000006e3       0x2b /home/user/ti-ezsdk_dm816x-evm_5_05_01_04/component-sources/syslink_2_20_00_14/packages/ti/syslink/lib/syslink.a_release(OsalMutex.o)
 .comment       0x0000070e       0x2b /home/user/ti-ezsdk_dm816x-evm_5_05_01_04/component-sources/syslink_2_20_00_14/packages/ti/syslink/lib/syslink.a_release(OsalPrint.o)
 .comment       0x00000739       0x2b /home/user/ti-ezsdk_dm816x-evm_5_05_01_04/component-sources/syslink_2_20_00_14/packages/ti/syslink/lib/syslink.a_release(ProcMgr.o)
 .comment       0x00000764       0x2b /home/user/ti-ezsdk_dm816x-evm_5_05_01_04/component-sources/syslink_2_20_00_14/packages/ti/syslink/lib/syslink.a_release(ProcMgrDrvUsr.o)
 .comment       0x0000078f       0x2b /home/user/ti-ezsdk_dm816x-evm_5_05_01_04/component-sources/syslink_2_20_00_14/packages/ti/syslink/lib/syslink.a_release(FrameQ_common.o)
 .comment       0x000007ba       0x2b /home/user/ti-ezsdk_dm816x-evm_5_05_01_04/component-sources/syslink_2_20_00_14/packages/ti/syslink/lib/syslink.a_release(ListMP.o)
 .comment       0x000007e5       0x2b /home/user/ti-ezsdk_dm816x-evm_5_05_01_04/component-sources/syslink_2_20_00_14/packages/ti/syslink/lib/syslink.a_release(MessageQ.o)
 .comment       0x00000810       0x2b /home/user/ti-ezsdk_dm816x-evm_5_05_01_04/component-sources/syslink_2_20_00_14/packages/ti/syslink/lib/syslink.a_release(ListMPDrv.o)
 .comment       0x0000083b       0x2b /home/user/ti-ezsdk_dm816x-evm_5_05_01_04/component-sources/syslink_2_20_00_14/packages/ti/syslink/lib/syslink.a_release(MessageQDrv.o)

.debug
 *(.debug)

.line
 *(.line)

.debug_srcinfo
 *(.debug_srcinfo)

.debug_sfnames
 *(.debug_sfnames)

.debug_aranges
 *(.debug_aranges)

.debug_pubnames
 *(.debug_pubnames)

.debug_info
 *(.debug_info .gnu.linkonce.wi.*)

.debug_abbrev
 *(.debug_abbrev)

.debug_line
 *(.debug_line)

.debug_frame    0x00000000       0x64
 *(.debug_frame)
 .debug_frame   0x00000000       0x44 /home/user/CodeSourcery/Sourcery_G++_Lite/bin/../arm-none-linux-gnueabi/libc/usr/lib/libc_nonshared.a(elf-init.oS)
 .debug_frame   0x00000044       0x20 /home/user/CodeSourcery/Sourcery_G++_Lite/bin/../lib/gcc/arm-none-linux-gnueabi/4.3.3/libgcc.a(_udivsi3.o)

.debug_str
 *(.debug_str)

.debug_loc
 *(.debug_loc)

.debug_macinfo
 *(.debug_macinfo)

.debug_weaknames
 *(.debug_weaknames)

.debug_funcnames
 *(.debug_funcnames)

.debug_typenames
 *(.debug_typenames)

.debug_varnames
 *(.debug_varnames)

.debug_pubtypes
 *(.debug_pubtypes)

.debug_ranges
 *(.debug_ranges)

.gnu.attributes
 *(.gnu.attributes)

.note.gnu.arm.ident
 *(.note.gnu.arm.ident)

/DISCARD/
 *(.note.GNU-stack)
 *(.gnu_debuglink)
OUTPUT(bin/release/app_host elf32-littlearm)
