Archive member included because of file (symbol)

/home/user/ti-ezsdk_dm816x-evm_5_05_01_04/component-sources/syslink_2_20_00_14/packages/ti/syslink/lib/syslink.a_debug(SharedRegion.o)
                              bin/debug/obj/App.ov5T (SharedRegion_getSRPtr)
/home/user/ti-ezsdk_dm816x-evm_5_05_01_04/component-sources/syslink_2_20_00_14/packages/ti/syslink/lib/syslink.a_debug(Notify.o)
                              bin/debug/obj/App.ov5T (Notify_registerEvent)
/home/user/ti-ezsdk_dm816x-evm_5_05_01_04/component-sources/syslink_2_20_00_14/packages/ti/syslink/lib/syslink.a_debug(Ipc.o)
                              bin/debug/obj/main_host.ov5T (Ipc_control)
/home/user/ti-ezsdk_dm816x-evm_5_05_01_04/component-sources/syslink_2_20_00_14/packages/ti/syslink/lib/syslink.a_debug(RingIO.o)
                              /home/user/ti-ezsdk_dm816x-evm_5_05_01_04/component-sources/syslink_2_20_00_14/packages/ti/syslink/lib/syslink.a_debug(Ipc.o) (RingIO_getConfig)
/home/user/ti-ezsdk_dm816x-evm_5_05_01_04/component-sources/syslink_2_20_00_14/packages/ti/syslink/lib/syslink.a_debug(RingIOShm.o)
                              /home/user/ti-ezsdk_dm816x-evm_5_05_01_04/component-sources/syslink_2_20_00_14/packages/ti/syslink/lib/syslink.a_debug(Ipc.o) (RingIOShm_getConfig)
/home/user/ti-ezsdk_dm816x-evm_5_05_01_04/component-sources/syslink_2_20_00_14/packages/ti/syslink/lib/syslink.a_debug(FrameQ.o)
                              /home/user/ti-ezsdk_dm816x-evm_5_05_01_04/component-sources/syslink_2_20_00_14/packages/ti/syslink/lib/syslink.a_debug(Ipc.o) (FrameQ_getConfig)
/home/user/ti-ezsdk_dm816x-evm_5_05_01_04/component-sources/syslink_2_20_00_14/packages/ti/syslink/lib/syslink.a_debug(FrameQBufMgr.o)
                              /home/user/ti-ezsdk_dm816x-evm_5_05_01_04/component-sources/syslink_2_20_00_14/packages/ti/syslink/lib/syslink.a_debug(Ipc.o) (FrameQBufMgr_getConfig)
/home/user/ti-ezsdk_dm816x-evm_5_05_01_04/component-sources/syslink_2_20_00_14/packages/ti/syslink/lib/syslink.a_debug(ClientNotifyMgr.o)
                              /home/user/ti-ezsdk_dm816x-evm_5_05_01_04/component-sources/syslink_2_20_00_14/packages/ti/syslink/lib/syslink.a_debug(RingIO.o) (ClientNotifyMgr_sharedMemReq)
/home/user/ti-ezsdk_dm816x-evm_5_05_01_04/component-sources/syslink_2_20_00_14/packages/ti/syslink/lib/syslink.a_debug(HeapMemMP.o)
                              /home/user/ti-ezsdk_dm816x-evm_5_05_01_04/component-sources/syslink_2_20_00_14/packages/ti/syslink/lib/syslink.a_debug(Ipc.o) (HeapMemMP_getConfig)
/home/user/ti-ezsdk_dm816x-evm_5_05_01_04/component-sources/syslink_2_20_00_14/packages/ti/syslink/lib/syslink.a_debug(HeapBufMP.o)
                              /home/user/ti-ezsdk_dm816x-evm_5_05_01_04/component-sources/syslink_2_20_00_14/packages/ti/syslink/lib/syslink.a_debug(Ipc.o) (HeapBufMP_getConfig)
/home/user/ti-ezsdk_dm816x-evm_5_05_01_04/component-sources/syslink_2_20_00_14/packages/ti/syslink/lib/syslink.a_debug(GateMP.o)
                              /home/user/ti-ezsdk_dm816x-evm_5_05_01_04/component-sources/syslink_2_20_00_14/packages/ti/syslink/lib/syslink.a_debug(Ipc.o) (GateMP_getConfig)
/home/user/ti-ezsdk_dm816x-evm_5_05_01_04/component-sources/syslink_2_20_00_14/packages/ti/syslink/lib/syslink.a_debug(SharedRegionDrv.o)
                              /home/user/ti-ezsdk_dm816x-evm_5_05_01_04/component-sources/syslink_2_20_00_14/packages/ti/syslink/lib/syslink.a_debug(SharedRegion.o) (SharedRegionDrv_open)
/home/user/ti-ezsdk_dm816x-evm_5_05_01_04/component-sources/syslink_2_20_00_14/packages/ti/syslink/lib/syslink.a_debug(NotifyDrvUsr.o)
                              /home/user/ti-ezsdk_dm816x-evm_5_05_01_04/component-sources/syslink_2_20_00_14/packages/ti/syslink/lib/syslink.a_debug(Notify.o) (NotifyDrvUsr_open)
/home/user/ti-ezsdk_dm816x-evm_5_05_01_04/component-sources/syslink_2_20_00_14/packages/ti/syslink/lib/syslink.a_debug(HeapBufMPDrv.o)
                              /home/user/ti-ezsdk_dm816x-evm_5_05_01_04/component-sources/syslink_2_20_00_14/packages/ti/syslink/lib/syslink.a_debug(HeapBufMP.o) (HeapBufMPDrv_open)
/home/user/ti-ezsdk_dm816x-evm_5_05_01_04/component-sources/syslink_2_20_00_14/packages/ti/syslink/lib/syslink.a_debug(IpcDrv.o)
                              /home/user/ti-ezsdk_dm816x-evm_5_05_01_04/component-sources/syslink_2_20_00_14/packages/ti/syslink/lib/syslink.a_debug(Ipc.o) (IpcDrv_open)
/home/user/ti-ezsdk_dm816x-evm_5_05_01_04/component-sources/syslink_2_20_00_14/packages/ti/syslink/lib/syslink.a_debug(FrameQDrv.o)
                              /home/user/ti-ezsdk_dm816x-evm_5_05_01_04/component-sources/syslink_2_20_00_14/packages/ti/syslink/lib/syslink.a_debug(FrameQ.o) (FrameQDrv_open)
/home/user/ti-ezsdk_dm816x-evm_5_05_01_04/component-sources/syslink_2_20_00_14/packages/ti/syslink/lib/syslink.a_debug(FrameQBufMgrDrv.o)
                              /home/user/ti-ezsdk_dm816x-evm_5_05_01_04/component-sources/syslink_2_20_00_14/packages/ti/syslink/lib/syslink.a_debug(FrameQBufMgr.o) (FrameQBufMgrDrv_open)
/home/user/ti-ezsdk_dm816x-evm_5_05_01_04/component-sources/syslink_2_20_00_14/packages/ti/syslink/lib/syslink.a_debug(ClientNotifyMgrDrv.o)
                              /home/user/ti-ezsdk_dm816x-evm_5_05_01_04/component-sources/syslink_2_20_00_14/packages/ti/syslink/lib/syslink.a_debug(ClientNotifyMgr.o) (ClientNotifyMgrDrv_open)
/home/user/ti-ezsdk_dm816x-evm_5_05_01_04/component-sources/syslink_2_20_00_14/packages/ti/syslink/lib/syslink.a_debug(RingIODrv.o)
                              /home/user/ti-ezsdk_dm816x-evm_5_05_01_04/component-sources/syslink_2_20_00_14/packages/ti/syslink/lib/syslink.a_debug(RingIO.o) (RingIODrv_open)
/home/user/ti-ezsdk_dm816x-evm_5_05_01_04/component-sources/syslink_2_20_00_14/packages/ti/syslink/lib/syslink.a_debug(RingIOShmDrv.o)
                              /home/user/ti-ezsdk_dm816x-evm_5_05_01_04/component-sources/syslink_2_20_00_14/packages/ti/syslink/lib/syslink.a_debug(RingIOShm.o) (RingIOShmDrv_open)
/home/user/ti-ezsdk_dm816x-evm_5_05_01_04/component-sources/syslink_2_20_00_14/packages/ti/syslink/lib/syslink.a_debug(HeapMemMPDrv.o)
                              /home/user/ti-ezsdk_dm816x-evm_5_05_01_04/component-sources/syslink_2_20_00_14/packages/ti/syslink/lib/syslink.a_debug(HeapMemMP.o) (HeapMemMPDrv_open)
/home/user/ti-ezsdk_dm816x-evm_5_05_01_04/component-sources/syslink_2_20_00_14/packages/ti/syslink/lib/syslink.a_debug(GateMPDrv.o)
                              /home/user/ti-ezsdk_dm816x-evm_5_05_01_04/component-sources/syslink_2_20_00_14/packages/ti/syslink/lib/syslink.a_debug(GateMP.o) (GateMPDrv_open)
/home/user/ti-ezsdk_dm816x-evm_5_05_01_04/component-sources/syslink_2_20_00_14/packages/ti/syslink/lib/syslink.a_debug(OsalProcess.o)
                              /home/user/ti-ezsdk_dm816x-evm_5_05_01_04/component-sources/syslink_2_20_00_14/packages/ti/syslink/lib/syslink.a_debug(Ipc.o) (OsalProcess_getPid)
/home/user/ti-ezsdk_dm816x-evm_5_05_01_04/component-sources/syslink_2_20_00_14/packages/ti/syslink/lib/syslink.a_debug(GateMutex.o)
                              /home/user/ti-ezsdk_dm816x-evm_5_05_01_04/component-sources/syslink_2_20_00_14/packages/ti/syslink/lib/syslink.a_debug(SharedRegion.o) (GateMutex_create)
/home/user/ti-ezsdk_dm816x-evm_5_05_01_04/component-sources/syslink_2_20_00_14/packages/ti/syslink/lib/syslink.a_debug(Memory.o)
                              /home/user/ti-ezsdk_dm816x-evm_5_05_01_04/component-sources/syslink_2_20_00_14/packages/ti/syslink/lib/syslink.a_debug(SharedRegion.o) (Memory_alloc)
/home/user/ti-ezsdk_dm816x-evm_5_05_01_04/component-sources/syslink_2_20_00_14/packages/ti/syslink/lib/syslink.a_debug(List.o)
                              /home/user/ti-ezsdk_dm816x-evm_5_05_01_04/component-sources/syslink_2_20_00_14/packages/ti/syslink/lib/syslink.a_debug(FrameQ.o) (List_construct)
/home/user/ti-ezsdk_dm816x-evm_5_05_01_04/component-sources/syslink_2_20_00_14/packages/ti/syslink/lib/syslink.a_debug(String.o)
                              /home/user/ti-ezsdk_dm816x-evm_5_05_01_04/component-sources/syslink_2_20_00_14/packages/ti/syslink/lib/syslink.a_debug(SharedRegion.o) (String_cmp)
/home/user/ti-ezsdk_dm816x-evm_5_05_01_04/component-sources/syslink_2_20_00_14/packages/ti/syslink/lib/syslink.a_debug(Trace.o)
                              /home/user/ti-ezsdk_dm816x-evm_5_05_01_04/component-sources/syslink_2_20_00_14/packages/ti/syslink/lib/syslink.a_debug(SharedRegion.o) (curTrace)
/home/user/ti-ezsdk_dm816x-evm_5_05_01_04/component-sources/syslink_2_20_00_14/packages/ti/syslink/lib/syslink.a_debug(NameServer.o)
                              /home/user/ti-ezsdk_dm816x-evm_5_05_01_04/component-sources/syslink_2_20_00_14/packages/ti/syslink/lib/syslink.a_debug(Ipc.o) (NameServer_setup)
/home/user/ti-ezsdk_dm816x-evm_5_05_01_04/component-sources/syslink_2_20_00_14/packages/ti/syslink/lib/syslink.a_debug(MultiProc.o)
                              /home/user/ti-ezsdk_dm816x-evm_5_05_01_04/component-sources/syslink_2_20_00_14/packages/ti/syslink/lib/syslink.a_debug(Ipc.o) (MultiProc_getConfig)
/home/user/ti-ezsdk_dm816x-evm_5_05_01_04/component-sources/syslink_2_20_00_14/packages/ti/syslink/lib/syslink.a_debug(Gate.o)
                              /home/user/ti-ezsdk_dm816x-evm_5_05_01_04/component-sources/syslink_2_20_00_14/packages/ti/syslink/lib/syslink.a_debug(FrameQ.o) (Gate_enterSystem)
/home/user/ti-ezsdk_dm816x-evm_5_05_01_04/component-sources/syslink_2_20_00_14/packages/ti/syslink/lib/syslink.a_debug(SysLink.o)
                              bin/debug/obj/main_host.ov5T (SysLink_setup)
/home/user/ti-ezsdk_dm816x-evm_5_05_01_04/component-sources/syslink_2_20_00_14/packages/ti/syslink/lib/syslink.a_debug(Cache.o)
                              /home/user/ti-ezsdk_dm816x-evm_5_05_01_04/component-sources/syslink_2_20_00_14/packages/ti/syslink/lib/syslink.a_debug(FrameQ.o) (Cache_inv)
/home/user/ti-ezsdk_dm816x-evm_5_05_01_04/component-sources/syslink_2_20_00_14/packages/ti/syslink/lib/syslink.a_debug(NameServerDrv.o)
                              /home/user/ti-ezsdk_dm816x-evm_5_05_01_04/component-sources/syslink_2_20_00_14/packages/ti/syslink/lib/syslink.a_debug(NameServer.o) (NameServerDrv_open)
/home/user/ti-ezsdk_dm816x-evm_5_05_01_04/component-sources/syslink_2_20_00_14/packages/ti/syslink/lib/syslink.a_debug(MultiProcDrv.o)
                              /home/user/ti-ezsdk_dm816x-evm_5_05_01_04/component-sources/syslink_2_20_00_14/packages/ti/syslink/lib/syslink.a_debug(MultiProc.o) (MultiProcDrv_open)
/home/user/ti-ezsdk_dm816x-evm_5_05_01_04/component-sources/syslink_2_20_00_14/packages/ti/syslink/lib/syslink.a_debug(TraceDrv.o)
                              /home/user/ti-ezsdk_dm816x-evm_5_05_01_04/component-sources/syslink_2_20_00_14/packages/ti/syslink/lib/syslink.a_debug(Trace.o) (TraceDrv_ioctl)
/home/user/ti-ezsdk_dm816x-evm_5_05_01_04/component-sources/syslink_2_20_00_14/packages/ti/syslink/lib/syslink.a_debug(CacheDrv.o)
                              /home/user/ti-ezsdk_dm816x-evm_5_05_01_04/component-sources/syslink_2_20_00_14/packages/ti/syslink/lib/syslink.a_debug(Cache.o) (CacheDrv_ioctl)
/home/user/ti-ezsdk_dm816x-evm_5_05_01_04/component-sources/syslink_2_20_00_14/packages/ti/syslink/lib/syslink.a_debug(MemoryOS.o)
                              /home/user/ti-ezsdk_dm816x-evm_5_05_01_04/component-sources/syslink_2_20_00_14/packages/ti/syslink/lib/syslink.a_debug(SysLink.o) (MemoryOS_setup)
/home/user/ti-ezsdk_dm816x-evm_5_05_01_04/component-sources/syslink_2_20_00_14/packages/ti/syslink/lib/syslink.a_debug(OsalDrv.o)
                              /home/user/ti-ezsdk_dm816x-evm_5_05_01_04/component-sources/syslink_2_20_00_14/packages/ti/syslink/lib/syslink.a_debug(MemoryOS.o) (OsalDrv_open)
/home/user/ti-ezsdk_dm816x-evm_5_05_01_04/component-sources/syslink_2_20_00_14/packages/ti/syslink/lib/syslink.a_debug(OsalMutex.o)
                              /home/user/ti-ezsdk_dm816x-evm_5_05_01_04/component-sources/syslink_2_20_00_14/packages/ti/syslink/lib/syslink.a_debug(GateMutex.o) (OsalMutex_create)
/home/user/ti-ezsdk_dm816x-evm_5_05_01_04/component-sources/syslink_2_20_00_14/packages/ti/syslink/lib/syslink.a_debug(OsalPrint.o)
                              /home/user/ti-ezsdk_dm816x-evm_5_05_01_04/component-sources/syslink_2_20_00_14/packages/ti/syslink/lib/syslink.a_debug(SharedRegion.o) (Osal_printf)
/home/user/ti-ezsdk_dm816x-evm_5_05_01_04/component-sources/syslink_2_20_00_14/packages/ti/syslink/lib/syslink.a_debug(ProcMgr.o)
                              /home/user/ti-ezsdk_dm816x-evm_5_05_01_04/component-sources/syslink_2_20_00_14/packages/ti/syslink/lib/syslink.a_debug(Ipc.o) (ProcMgr_getConfig)
/home/user/ti-ezsdk_dm816x-evm_5_05_01_04/component-sources/syslink_2_20_00_14/packages/ti/syslink/lib/syslink.a_debug(ProcMgrDrvUsr.o)
                              /home/user/ti-ezsdk_dm816x-evm_5_05_01_04/component-sources/syslink_2_20_00_14/packages/ti/syslink/lib/syslink.a_debug(ProcMgr.o) (ProcMgrDrvUsr_open)
/home/user/ti-ezsdk_dm816x-evm_5_05_01_04/component-sources/syslink_2_20_00_14/packages/ti/syslink/lib/syslink.a_debug(FrameQ_common.o)
                              /home/user/ti-ezsdk_dm816x-evm_5_05_01_04/component-sources/syslink_2_20_00_14/packages/ti/syslink/lib/syslink.a_debug(FrameQ.o) (FrameQ_isSupportedInterface)
/home/user/ti-ezsdk_dm816x-evm_5_05_01_04/component-sources/syslink_2_20_00_14/packages/ti/syslink/lib/syslink.a_debug(ListMP.o)
                              /home/user/ti-ezsdk_dm816x-evm_5_05_01_04/component-sources/syslink_2_20_00_14/packages/ti/syslink/lib/syslink.a_debug(Ipc.o) (ListMP_getConfig)
/home/user/ti-ezsdk_dm816x-evm_5_05_01_04/component-sources/syslink_2_20_00_14/packages/ti/syslink/lib/syslink.a_debug(MessageQ.o)
                              /home/user/ti-ezsdk_dm816x-evm_5_05_01_04/component-sources/syslink_2_20_00_14/packages/ti/syslink/lib/syslink.a_debug(Ipc.o) (MessageQ_getConfig)
/home/user/ti-ezsdk_dm816x-evm_5_05_01_04/component-sources/syslink_2_20_00_14/packages/ti/syslink/lib/syslink.a_debug(ListMPDrv.o)
                              /home/user/ti-ezsdk_dm816x-evm_5_05_01_04/component-sources/syslink_2_20_00_14/packages/ti/syslink/lib/syslink.a_debug(ListMP.o) (ListMPDrv_open)
/home/user/ti-ezsdk_dm816x-evm_5_05_01_04/component-sources/syslink_2_20_00_14/packages/ti/syslink/lib/syslink.a_debug(MessageQDrv.o)
                              /home/user/ti-ezsdk_dm816x-evm_5_05_01_04/component-sources/syslink_2_20_00_14/packages/ti/syslink/lib/syslink.a_debug(MessageQ.o) (MessageQDrv_open)
/home/user/CodeSourcery/Sourcery_G++_Lite/bin/../arm-none-linux-gnueabi/libc/usr/lib/libc_nonshared.a(elf-init.oS)
                              /home/user/CodeSourcery/Sourcery_G++_Lite/bin/../arm-none-linux-gnueabi/libc/usr/lib/crt1.o (__libc_csu_fini)
/home/user/CodeSourcery/Sourcery_G++_Lite/bin/../lib/gcc/arm-none-linux-gnueabi/4.3.3/libgcc.a(_udivsi3.o)
                              /home/user/ti-ezsdk_dm816x-evm_5_05_01_04/component-sources/syslink_2_20_00_14/packages/ti/syslink/lib/syslink.a_debug(ClientNotifyMgr.o) (__aeabi_uidiv)
/home/user/CodeSourcery/Sourcery_G++_Lite/bin/../lib/gcc/arm-none-linux-gnueabi/4.3.3/libgcc.a(_dvmd_lnx.o)
                              /home/user/CodeSourcery/Sourcery_G++_Lite/bin/../lib/gcc/arm-none-linux-gnueabi/4.3.3/libgcc.a(_udivsi3.o) (__aeabi_idiv0)

Allocating common symbols
Common symbol       size              file

testin              0x4               bin/debug/obj/App.ov5T
Buffersize          0x2               bin/debug/obj/App.ov5T
MemoryOS_state      0x10              /home/user/ti-ezsdk_dm816x-evm_5_05_01_04/component-sources/syslink_2_20_00_14/packages/ti/syslink/lib/syslink.a_debug(MemoryOS.o)
NameServer_Object   0x4               /home/user/ti-ezsdk_dm816x-evm_5_05_01_04/component-sources/syslink_2_20_00_14/packages/ti/syslink/lib/syslink.a_debug(NameServer.o)

Discarded input sections

 .note.GNU-stack
                0x00000000        0x0 /home/user/CodeSourcery/Sourcery_G++_Lite/bin/../arm-none-linux-gnueabi/libc/usr/lib/crt1.o
 .note.GNU-stack
                0x00000000        0x0 /home/user/CodeSourcery/Sourcery_G++_Lite/bin/../arm-none-linux-gnueabi/libc/usr/lib/crti.o
 .note.GNU-stack
                0x00000000        0x0 /home/user/CodeSourcery/Sourcery_G++_Lite/bin/../lib/gcc/arm-none-linux-gnueabi/4.3.3/crtbegin.o
 .note.GNU-stack
                0x00000000        0x0 bin/debug/obj/main_host.ov5T
 .note.GNU-stack
                0x00000000        0x0 bin/debug/obj/App.ov5T
 .note.GNU-stack
                0x00000000        0x0 /home/user/ti-ezsdk_dm816x-evm_5_05_01_04/component-sources/syslink_2_20_00_14/packages/ti/syslink/lib/syslink.a_debug(SharedRegion.o)
 .note.GNU-stack
                0x00000000        0x0 /home/user/ti-ezsdk_dm816x-evm_5_05_01_04/component-sources/syslink_2_20_00_14/packages/ti/syslink/lib/syslink.a_debug(Notify.o)
 .note.GNU-stack
                0x00000000        0x0 /home/user/ti-ezsdk_dm816x-evm_5_05_01_04/component-sources/syslink_2_20_00_14/packages/ti/syslink/lib/syslink.a_debug(Ipc.o)
 .note.GNU-stack
                0x00000000        0x0 /home/user/ti-ezsdk_dm816x-evm_5_05_01_04/component-sources/syslink_2_20_00_14/packages/ti/syslink/lib/syslink.a_debug(RingIO.o)
 .note.GNU-stack
                0x00000000        0x0 /home/user/ti-ezsdk_dm816x-evm_5_05_01_04/component-sources/syslink_2_20_00_14/packages/ti/syslink/lib/syslink.a_debug(RingIOShm.o)
 .note.GNU-stack
                0x00000000        0x0 /home/user/ti-ezsdk_dm816x-evm_5_05_01_04/component-sources/syslink_2_20_00_14/packages/ti/syslink/lib/syslink.a_debug(FrameQ.o)
 .note.GNU-stack
                0x00000000        0x0 /home/user/ti-ezsdk_dm816x-evm_5_05_01_04/component-sources/syslink_2_20_00_14/packages/ti/syslink/lib/syslink.a_debug(FrameQBufMgr.o)
 .note.GNU-stack
                0x00000000        0x0 /home/user/ti-ezsdk_dm816x-evm_5_05_01_04/component-sources/syslink_2_20_00_14/packages/ti/syslink/lib/syslink.a_debug(ClientNotifyMgr.o)
 .note.GNU-stack
                0x00000000        0x0 /home/user/ti-ezsdk_dm816x-evm_5_05_01_04/component-sources/syslink_2_20_00_14/packages/ti/syslink/lib/syslink.a_debug(HeapMemMP.o)
 .note.GNU-stack
                0x00000000        0x0 /home/user/ti-ezsdk_dm816x-evm_5_05_01_04/component-sources/syslink_2_20_00_14/packages/ti/syslink/lib/syslink.a_debug(HeapBufMP.o)
 .note.GNU-stack
                0x00000000        0x0 /home/user/ti-ezsdk_dm816x-evm_5_05_01_04/component-sources/syslink_2_20_00_14/packages/ti/syslink/lib/syslink.a_debug(GateMP.o)
 .note.GNU-stack
                0x00000000        0x0 /home/user/ti-ezsdk_dm816x-evm_5_05_01_04/component-sources/syslink_2_20_00_14/packages/ti/syslink/lib/syslink.a_debug(SharedRegionDrv.o)
 .note.GNU-stack
                0x00000000        0x0 /home/user/ti-ezsdk_dm816x-evm_5_05_01_04/component-sources/syslink_2_20_00_14/packages/ti/syslink/lib/syslink.a_debug(NotifyDrvUsr.o)
 .note.GNU-stack
                0x00000000        0x0 /home/user/ti-ezsdk_dm816x-evm_5_05_01_04/component-sources/syslink_2_20_00_14/packages/ti/syslink/lib/syslink.a_debug(HeapBufMPDrv.o)
 .note.GNU-stack
                0x00000000        0x0 /home/user/ti-ezsdk_dm816x-evm_5_05_01_04/component-sources/syslink_2_20_00_14/packages/ti/syslink/lib/syslink.a_debug(IpcDrv.o)
 .note.GNU-stack
                0x00000000        0x0 /home/user/ti-ezsdk_dm816x-evm_5_05_01_04/component-sources/syslink_2_20_00_14/packages/ti/syslink/lib/syslink.a_debug(FrameQDrv.o)
 .note.GNU-stack
                0x00000000        0x0 /home/user/ti-ezsdk_dm816x-evm_5_05_01_04/component-sources/syslink_2_20_00_14/packages/ti/syslink/lib/syslink.a_debug(FrameQBufMgrDrv.o)
 .note.GNU-stack
                0x00000000        0x0 /home/user/ti-ezsdk_dm816x-evm_5_05_01_04/component-sources/syslink_2_20_00_14/packages/ti/syslink/lib/syslink.a_debug(ClientNotifyMgrDrv.o)
 .note.GNU-stack
                0x00000000        0x0 /home/user/ti-ezsdk_dm816x-evm_5_05_01_04/component-sources/syslink_2_20_00_14/packages/ti/syslink/lib/syslink.a_debug(RingIODrv.o)
 .note.GNU-stack
                0x00000000        0x0 /home/user/ti-ezsdk_dm816x-evm_5_05_01_04/component-sources/syslink_2_20_00_14/packages/ti/syslink/lib/syslink.a_debug(RingIOShmDrv.o)
 .note.GNU-stack
                0x00000000        0x0 /home/user/ti-ezsdk_dm816x-evm_5_05_01_04/component-sources/syslink_2_20_00_14/packages/ti/syslink/lib/syslink.a_debug(HeapMemMPDrv.o)
 .note.GNU-stack
                0x00000000        0x0 /home/user/ti-ezsdk_dm816x-evm_5_05_01_04/component-sources/syslink_2_20_00_14/packages/ti/syslink/lib/syslink.a_debug(GateMPDrv.o)
 .note.GNU-stack
                0x00000000        0x0 /home/user/ti-ezsdk_dm816x-evm_5_05_01_04/component-sources/syslink_2_20_00_14/packages/ti/syslink/lib/syslink.a_debug(OsalProcess.o)
 .note.GNU-stack
                0x00000000        0x0 /home/user/ti-ezsdk_dm816x-evm_5_05_01_04/component-sources/syslink_2_20_00_14/packages/ti/syslink/lib/syslink.a_debug(GateMutex.o)
 .note.GNU-stack
                0x00000000        0x0 /home/user/ti-ezsdk_dm816x-evm_5_05_01_04/component-sources/syslink_2_20_00_14/packages/ti/syslink/lib/syslink.a_debug(Memory.o)
 .note.GNU-stack
                0x00000000        0x0 /home/user/ti-ezsdk_dm816x-evm_5_05_01_04/component-sources/syslink_2_20_00_14/packages/ti/syslink/lib/syslink.a_debug(List.o)
 .note.GNU-stack
                0x00000000        0x0 /home/user/ti-ezsdk_dm816x-evm_5_05_01_04/component-sources/syslink_2_20_00_14/packages/ti/syslink/lib/syslink.a_debug(String.o)
 .note.GNU-stack
                0x00000000        0x0 /home/user/ti-ezsdk_dm816x-evm_5_05_01_04/component-sources/syslink_2_20_00_14/packages/ti/syslink/lib/syslink.a_debug(Trace.o)
 .note.GNU-stack
                0x00000000        0x0 /home/user/ti-ezsdk_dm816x-evm_5_05_01_04/component-sources/syslink_2_20_00_14/packages/ti/syslink/lib/syslink.a_debug(NameServer.o)
 .note.GNU-stack
                0x00000000        0x0 /home/user/ti-ezsdk_dm816x-evm_5_05_01_04/component-sources/syslink_2_20_00_14/packages/ti/syslink/lib/syslink.a_debug(MultiProc.o)
 .note.GNU-stack
                0x00000000        0x0 /home/user/ti-ezsdk_dm816x-evm_5_05_01_04/component-sources/syslink_2_20_00_14/packages/ti/syslink/lib/syslink.a_debug(Gate.o)
 .note.GNU-stack
                0x00000000        0x0 /home/user/ti-ezsdk_dm816x-evm_5_05_01_04/component-sources/syslink_2_20_00_14/packages/ti/syslink/lib/syslink.a_debug(SysLink.o)
 .note.GNU-stack
                0x00000000        0x0 /home/user/ti-ezsdk_dm816x-evm_5_05_01_04/component-sources/syslink_2_20_00_14/packages/ti/syslink/lib/syslink.a_debug(Cache.o)
 .note.GNU-stack
                0x00000000        0x0 /home/user/ti-ezsdk_dm816x-evm_5_05_01_04/component-sources/syslink_2_20_00_14/packages/ti/syslink/lib/syslink.a_debug(NameServerDrv.o)
 .note.GNU-stack
                0x00000000        0x0 /home/user/ti-ezsdk_dm816x-evm_5_05_01_04/component-sources/syslink_2_20_00_14/packages/ti/syslink/lib/syslink.a_debug(MultiProcDrv.o)
 .note.GNU-stack
                0x00000000        0x0 /home/user/ti-ezsdk_dm816x-evm_5_05_01_04/component-sources/syslink_2_20_00_14/packages/ti/syslink/lib/syslink.a_debug(TraceDrv.o)
 .note.GNU-stack
                0x00000000        0x0 /home/user/ti-ezsdk_dm816x-evm_5_05_01_04/component-sources/syslink_2_20_00_14/packages/ti/syslink/lib/syslink.a_debug(CacheDrv.o)
 .note.GNU-stack
                0x00000000        0x0 /home/user/ti-ezsdk_dm816x-evm_5_05_01_04/component-sources/syslink_2_20_00_14/packages/ti/syslink/lib/syslink.a_debug(MemoryOS.o)
 .note.GNU-stack
                0x00000000        0x0 /home/user/ti-ezsdk_dm816x-evm_5_05_01_04/component-sources/syslink_2_20_00_14/packages/ti/syslink/lib/syslink.a_debug(OsalDrv.o)
 .note.GNU-stack
                0x00000000        0x0 /home/user/ti-ezsdk_dm816x-evm_5_05_01_04/component-sources/syslink_2_20_00_14/packages/ti/syslink/lib/syslink.a_debug(OsalMutex.o)
 .note.GNU-stack
                0x00000000        0x0 /home/user/ti-ezsdk_dm816x-evm_5_05_01_04/component-sources/syslink_2_20_00_14/packages/ti/syslink/lib/syslink.a_debug(OsalPrint.o)
 .note.GNU-stack
                0x00000000        0x0 /home/user/ti-ezsdk_dm816x-evm_5_05_01_04/component-sources/syslink_2_20_00_14/packages/ti/syslink/lib/syslink.a_debug(ProcMgr.o)
 .note.GNU-stack
                0x00000000        0x0 /home/user/ti-ezsdk_dm816x-evm_5_05_01_04/component-sources/syslink_2_20_00_14/packages/ti/syslink/lib/syslink.a_debug(ProcMgrDrvUsr.o)
 .note.GNU-stack
                0x00000000        0x0 /home/user/ti-ezsdk_dm816x-evm_5_05_01_04/component-sources/syslink_2_20_00_14/packages/ti/syslink/lib/syslink.a_debug(FrameQ_common.o)
 .note.GNU-stack
                0x00000000        0x0 /home/user/ti-ezsdk_dm816x-evm_5_05_01_04/component-sources/syslink_2_20_00_14/packages/ti/syslink/lib/syslink.a_debug(ListMP.o)
 .note.GNU-stack
                0x00000000        0x0 /home/user/ti-ezsdk_dm816x-evm_5_05_01_04/component-sources/syslink_2_20_00_14/packages/ti/syslink/lib/syslink.a_debug(MessageQ.o)
 .note.GNU-stack
                0x00000000        0x0 /home/user/ti-ezsdk_dm816x-evm_5_05_01_04/component-sources/syslink_2_20_00_14/packages/ti/syslink/lib/syslink.a_debug(ListMPDrv.o)
 .note.GNU-stack
                0x00000000        0x0 /home/user/ti-ezsdk_dm816x-evm_5_05_01_04/component-sources/syslink_2_20_00_14/packages/ti/syslink/lib/syslink.a_debug(MessageQDrv.o)
 .note.GNU-stack
                0x00000000        0x0 /home/user/CodeSourcery/Sourcery_G++_Lite/bin/../arm-none-linux-gnueabi/libc/usr/lib/libc_nonshared.a(elf-init.oS)
 .note.GNU-stack
                0x00000000        0x0 /home/user/CodeSourcery/Sourcery_G++_Lite/bin/../lib/gcc/arm-none-linux-gnueabi/4.3.3/libgcc.a(_udivsi3.o)
 .note.GNU-stack
                0x00000000        0x0 /home/user/CodeSourcery/Sourcery_G++_Lite/bin/../lib/gcc/arm-none-linux-gnueabi/4.3.3/libgcc.a(_dvmd_lnx.o)
 .note.GNU-stack
                0x00000000        0x0 /home/user/CodeSourcery/Sourcery_G++_Lite/bin/../lib/gcc/arm-none-linux-gnueabi/4.3.3/crtend.o
 .note.GNU-stack
                0x00000000        0x0 /home/user/CodeSourcery/Sourcery_G++_Lite/bin/../arm-none-linux-gnueabi/libc/usr/lib/crtn.o

Memory Configuration

Name             Origin             Length             Attributes
*default*        0x00000000         0xffffffff

Linker script and memory map

LOAD /home/user/CodeSourcery/Sourcery_G++_Lite/bin/../arm-none-linux-gnueabi/libc/usr/lib/crt1.o
LOAD /home/user/CodeSourcery/Sourcery_G++_Lite/bin/../arm-none-linux-gnueabi/libc/usr/lib/crti.o
LOAD /home/user/CodeSourcery/Sourcery_G++_Lite/bin/../lib/gcc/arm-none-linux-gnueabi/4.3.3/crtbegin.o
LOAD bin/debug/obj/main_host.ov5T
LOAD bin/debug/obj/App.ov5T
LOAD /home/user/ti-ezsdk_dm816x-evm_5_05_01_04/component-sources/syslink_2_20_00_14/packages/ti/syslink/lib/syslink.a_debug
LOAD /home/user/CodeSourcery/Sourcery_G++_Lite/bin/../arm-none-linux-gnueabi/libc/usr/lib/libpthread.so
START GROUP
LOAD /home/user/CodeSourcery/Sourcery_G++_Lite/bin/../arm-none-linux-gnueabi/libc/lib/libpthread.so.0
LOAD /home/user/CodeSourcery/Sourcery_G++_Lite/bin/../arm-none-linux-gnueabi/libc/usr/lib/libpthread_nonshared.a
END GROUP
LOAD /home/user/CodeSourcery/Sourcery_G++_Lite/bin/../arm-none-linux-gnueabi/libc/usr/lib/libc.so
START GROUP
LOAD /home/user/CodeSourcery/Sourcery_G++_Lite/bin/../arm-none-linux-gnueabi/libc/lib/libc.so.6
LOAD /home/user/CodeSourcery/Sourcery_G++_Lite/bin/../arm-none-linux-gnueabi/libc/usr/lib/libc_nonshared.a
LOAD /home/user/CodeSourcery/Sourcery_G++_Lite/bin/../arm-none-linux-gnueabi/libc/lib/ld-linux.so.3
END GROUP
LOAD /home/user/CodeSourcery/Sourcery_G++_Lite/bin/../arm-none-linux-gnueabi/libc/usr/lib/librt.so
LOAD /home/user/CodeSourcery/Sourcery_G++_Lite/bin/../lib/gcc/arm-none-linux-gnueabi/4.3.3/libgcc.a
LOAD /home/user/CodeSourcery/Sourcery_G++_Lite/bin/../arm-none-linux-gnueabi/libc/lib/libgcc_s.so
LOAD /home/user/CodeSourcery/Sourcery_G++_Lite/bin/../arm-none-linux-gnueabi/libc/usr/lib/libc.so
START GROUP
LOAD /home/user/CodeSourcery/Sourcery_G++_Lite/bin/../arm-none-linux-gnueabi/libc/lib/libc.so.6
LOAD /home/user/CodeSourcery/Sourcery_G++_Lite/bin/../arm-none-linux-gnueabi/libc/usr/lib/libc_nonshared.a
LOAD /home/user/CodeSourcery/Sourcery_G++_Lite/bin/../arm-none-linux-gnueabi/libc/lib/ld-linux.so.3
END GROUP
LOAD /home/user/CodeSourcery/Sourcery_G++_Lite/bin/../lib/gcc/arm-none-linux-gnueabi/4.3.3/libgcc.a
LOAD /home/user/CodeSourcery/Sourcery_G++_Lite/bin/../arm-none-linux-gnueabi/libc/lib/libgcc_s.so
LOAD /home/user/CodeSourcery/Sourcery_G++_Lite/bin/../lib/gcc/arm-none-linux-gnueabi/4.3.3/crtend.o
LOAD /home/user/CodeSourcery/Sourcery_G++_Lite/bin/../arm-none-linux-gnueabi/libc/usr/lib/crtn.o
                0x00008000                PROVIDE (__executable_start, 0x8000)
                0x00008134                . = (0x8000 + SIZEOF_HEADERS)

.interp         0x00008134       0x13
 *(.interp)
 .interp        0x00008134       0x13 /home/user/CodeSourcery/Sourcery_G++_Lite/bin/../arm-none-linux-gnueabi/libc/usr/lib/crti.o

.note.ABI-tag   0x00008148       0x20
 .note.ABI-tag  0x00008148       0x20 /home/user/CodeSourcery/Sourcery_G++_Lite/bin/../arm-none-linux-gnueabi/libc/usr/lib/crt1.o

.note.gnu.build-id
 *(.note.gnu.build-id)

.hash           0x00008168      0x15c
 *(.hash)
 .hash          0x00008168      0x15c /home/user/CodeSourcery/Sourcery_G++_Lite/bin/../arm-none-linux-gnueabi/libc/usr/lib/crti.o

.gnu.hash
 *(.gnu.hash)

.dynsym         0x000082c4      0x300
 *(.dynsym)
 .dynsym        0x000082c4      0x300 /home/user/CodeSourcery/Sourcery_G++_Lite/bin/../arm-none-linux-gnueabi/libc/usr/lib/crti.o

.dynstr         0x000085c4      0x203
 *(.dynstr)
 .dynstr        0x000085c4      0x203 /home/user/CodeSourcery/Sourcery_G++_Lite/bin/../arm-none-linux-gnueabi/libc/usr/lib/crti.o

.gnu.version    0x000087c8       0x60
 *(.gnu.version)
 .gnu.version   0x000087c8       0x60 /home/user/CodeSourcery/Sourcery_G++_Lite/bin/../arm-none-linux-gnueabi/libc/usr/lib/crti.o

.gnu.version_d  0x00008828        0x0
 *(.gnu.version_d)
 .gnu.version_d
                0x00000000        0x0 /home/user/CodeSourcery/Sourcery_G++_Lite/bin/../arm-none-linux-gnueabi/libc/usr/lib/crti.o

.gnu.version_r  0x00008828       0x60
 *(.gnu.version_r)
 .gnu.version_r
                0x00008828       0x60 /home/user/CodeSourcery/Sourcery_G++_Lite/bin/../arm-none-linux-gnueabi/libc/usr/lib/crti.o

.rel.dyn        0x00008888       0x18
 *(.rel.init)
 *(.rel.text .rel.text.* .rel.gnu.linkonce.t.*)
 *(.rel.fini)
 *(.rel.rodata .rel.rodata.* .rel.gnu.linkonce.r.*)
 *(.rel.data.rel.ro* .rel.gnu.linkonce.d.rel.ro.*)
 *(.rel.data .rel.data.* .rel.gnu.linkonce.d.*)
 *(.rel.tdata .rel.tdata.* .rel.gnu.linkonce.td.*)
 *(.rel.tbss .rel.tbss.* .rel.gnu.linkonce.tb.*)
 *(.rel.ctors)
 *(.rel.dtors)
 *(.rel.got)
 .rel.got       0x00008888       0x18 /home/user/CodeSourcery/Sourcery_G++_Lite/bin/../arm-none-linux-gnueabi/libc/usr/lib/crti.o
 *(.rel.bss .rel.bss.* .rel.gnu.linkonce.b.*)
 .rel.bss       0x00000000        0x0 /home/user/CodeSourcery/Sourcery_G++_Lite/bin/../arm-none-linux-gnueabi/libc/usr/lib/crti.o

.rel.ifunc.dyn
 *(.rel.ifunc.*)

.rela.dyn
 *(.rela.init)
 *(.rela.text .rela.text.* .rela.gnu.linkonce.t.*)
 *(.rela.fini)
 *(.rela.rodata .rela.rodata.* .rela.gnu.linkonce.r.*)
 *(.rela.data .rela.data.* .rela.gnu.linkonce.d.*)
 *(.rela.tdata .rela.tdata.* .rela.gnu.linkonce.td.*)
 *(.rela.tbss .rela.tbss.* .rela.gnu.linkonce.tb.*)
 *(.rela.ctors)
 *(.rela.dtors)
 *(.rela.got)
 *(.rela.bss .rela.bss.* .rela.gnu.linkonce.b.*)

.rela.ifunc.dyn
 *(.rela.ifunc.*)

.rel.plt        0x000088a0      0x150
 *(.rel.plt)
 .rel.plt       0x000088a0      0x150 /home/user/CodeSourcery/Sourcery_G++_Lite/bin/../arm-none-linux-gnueabi/libc/usr/lib/crti.o

.rela.plt
 *(.rela.plt)

.init           0x000089f0        0xc
 *(.init)
 .init          0x000089f0        0x8 /home/user/CodeSourcery/Sourcery_G++_Lite/bin/../arm-none-linux-gnueabi/libc/usr/lib/crti.o
                0x000089f0                _init
 .init          0x000089f8        0x4 /home/user/CodeSourcery/Sourcery_G++_Lite/bin/../arm-none-linux-gnueabi/libc/usr/lib/crtn.o

.plt            0x000089fc      0x20c
 *(.plt)
 .plt           0x000089fc      0x20c /home/user/CodeSourcery/Sourcery_G++_Lite/bin/../arm-none-linux-gnueabi/libc/usr/lib/crti.o
                0x00008a10                open@@GLIBC_2.4
                0x00008a1c                mmap@@GLIBC_2.4
                0x00008a28                abort@@GLIBC_2.4
                0x00008a34                pthread_exit@@GLIBC_2.4
                0x00008a40                __libc_start_main@@GLIBC_2.4
                0x00008a58                vsprintf@@GLIBC_2.4
                0x00008a64                fclose@@GLIBC_2.4
                0x00008a70                getenv@@GLIBC_2.4
                0x00008a7c                putchar@@GLIBC_2.4
                0x00008a88                sem_init@@GLIBC_2.4
                0x00008a94                fopen@@GLIBC_2.4
                0x00008aa0                memset@@GLIBC_2.4
                0x00008aac                sem_destroy@@GLIBC_2.4
                0x00008ab8                perror@@GLIBC_2.4
                0x00008ac4                usleep@@GLIBC_2.4
                0x00008ad0                free@@GLIBC_2.4
                0x00008adc                read@@GLIBC_2.4
                0x00008ae8                write@@GLIBC_2.4
                0x00008af4                pthread_mutex_unlock@@GLIBC_2.4
                0x00008b00                ioctl@@GLIBC_2.4
                0x00008b0c                pthread_mutex_lock@@GLIBC_2.4
                0x00008b18                pthread_create@@GLIBC_2.4
                0x00008b24                memcpy@@GLIBC_2.4
                0x00008b30                sem_post@@GLIBC_2.4
                0x00008b3c                pthread_sigmask@@GLIBC_2.4
                0x00008b48                printf@@GLIBC_2.4
                0x00008b54                raise@@GLIBC_2.4
                0x00008b60                pthread_mutex_init@@GLIBC_2.4
                0x00008b6c                close@@GLIBC_2.4
                0x00008b78                malloc@@GLIBC_2.4
                0x00008b84                sigfillset@@GLIBC_2.4
                0x00008b90                puts@@GLIBC_2.4
                0x00008b9c                getpid@@GLIBC_2.4
                0x00008ba8                fcntl@@GLIBC_2.4
                0x00008bb4                munmap@@GLIBC_2.4
                0x00008bc0                fread@@GLIBC_2.4
                0x00008bcc                sem_wait@@GLIBC_2.4
                0x00008bd8                exit@@GLIBC_2.4
                0x00008be4                pthread_self@@GLIBC_2.4
                0x00008bf0                pthread_join@@GLIBC_2.4
                0x00008bfc                getpagesize@@GLIBC_2.4

.text           0x00008c08    0x3c6d4
 *(.text .stub .text.* .gnu.linkonce.t.*)
 .text          0x00008c08       0x38 /home/user/CodeSourcery/Sourcery_G++_Lite/bin/../arm-none-linux-gnueabi/libc/usr/lib/crt1.o
                0x00008c08                _start
 .text          0x00008c40       0x24 /home/user/CodeSourcery/Sourcery_G++_Lite/bin/../arm-none-linux-gnueabi/libc/usr/lib/crti.o
 .text          0x00008c64       0x4c /home/user/CodeSourcery/Sourcery_G++_Lite/bin/../lib/gcc/arm-none-linux-gnueabi/4.3.3/crtbegin.o
 .text          0x00008cb0      0x5d8 bin/debug/obj/main_host.ov5T
                0x00008cb0                main
 .text          0x00009288      0xcd8 bin/debug/obj/App.ov5T
                0x00009c18                App_delete
                0x00009654                App_exec
                0x00009288                App_create
 .text          0x00009f60     0x3ad4 /home/user/ti-ezsdk_dm816x-evm_5_05_01_04/component-sources/syslink_2_20_00_14/packages/ti/syslink/lib/syslink.a_debug(SharedRegion.o)
                0x0000b4d4                SharedRegion_getPtr
                0x0000a0e8                SharedRegion_setup
                0x0000c5bc                SharedRegion_isCacheEnabled
                0x0000d250                SharedRegion_getRegionInfo
                0x0000c838                SharedRegion_getNumRegions
                0x0000cda4                SharedRegion_getNumOffsetBits
                0x0000c194                SharedRegion_getEntry
                0x0000cee8                SharedRegion_checkOverlap
                0x0000b6c0                SharedRegion_getSRPtr
                0x0000b9e4                SharedRegion_clearEntry
                0x00009f60                SharedRegion_getConfig
                0x0000d144                SharedRegion_clearReservedMemory
                0x0000ac64                SharedRegion_stop
                0x0000a798                SharedRegion_destroy
                0x0000d44c                _SharedRegion_setRegions
                0x0000bf80                SharedRegion_getIdByName
                0x0000ca50                SharedRegion_reserveMemory
                0x0000bd10                SharedRegion_getHeap
                0x0000ca34                SharedRegion_invalidSRPtr
                0x0000ab44                SharedRegion_start
                0x0000ad84                SharedRegion_attach
                0x0000b318                SharedRegion_getId
                0x0000aeec                SharedRegion_detach
                0x0000c3b0                SharedRegion_getCacheLineSize
                0x0000b04c                SharedRegion_setEntry
                0x0000c7cc                SharedRegion_translateEnabled
                0x0000d7ec                _SharedRegion_clearRegions
                0x0000c8a4                SharedRegion_entryInit
 .text          0x0000da34     0x2af0 /home/user/ti-ezsdk_dm816x-evm_5_05_01_04/component-sources/syslink_2_20_00_14/packages/ti/syslink/lib/syslink.a_debug(Notify.o)
                0x0000da34                Notify_getConfig
                0x0000e804                Notify_registerEventSingle
                0x0000fcb0                Notify_restore
                0x0000f720                Notify_sendEvent
                0x0000fea4                Notify_disableEvent
                0x0000e5d4                Notify_intLineRegistered
                0x0000e19c                Notify_sharedMemReq
                0x0000f370                Notify_unregisterEvent
                0x0000dbd4                Notify_setup
                0x0000f000                Notify_unregisterEventSingle
                0x0000e334                Notify_eventAvailable
                0x0000ddc4                Notify_destroy
                0x0000e08c                Notify_detach
                0x0000def8                Notify_attach
                0x0000ec00                Notify_registerEvent
                0x0000fab0                Notify_disable
                0x000101e4                Notify_enableEvent
 .text          0x00010524     0x18f4 /home/user/ti-ezsdk_dm816x-evm_5_05_01_04/component-sources/syslink_2_20_00_14/packages/ti/syslink/lib/syslink.a_debug(Ipc.o)
                0x00011aac                Ipc_writeConfig
                0x00011d68                Ipc_runtimeId
                0x0001177c                Ipc_control
                0x00011018                Ipc_destroy
                0x0001075c                Ipc_setup
                0x00010524                Ipc_getConfig
                0x0001198c                Ipc_readConfig
 .text          0x00011e18     0x3040 /home/user/ti-ezsdk_dm816x-evm_5_05_01_04/component-sources/syslink_2_20_00_14/packages/ti/syslink/lib/syslink.a_debug(RingIO.o)
                0x00013a28                RingIO_unregisterNotifier
                0x00012138                RingIO_destroy
                0x000134bc                RingIO_close
                0x00011e18                RingIO_getConfig
                0x00014b20                RingIO_flush
                0x00014928                RingIO_setAttribute
                0x00013d24                RingIO_getValidSize
                0x00014c44                RingIO_sendNotify
                0x00014d28                RingIO_sharedMemReq
                0x000129f8                RingIO_delete
                0x000130b8                RingIO_openByAddr
                0x0001424c                RingIO_getWaterMark
                0x00012264                RingIO_Params_init
                0x00013fb8                RingIO_getEmptyAttrSize
                0x00014598                RingIO_release
                0x00014094                RingIO_getAcquiredOffset
                0x00013798                RingIO_registerNotifier
                0x00013be8                RingIO_setNotifyType
                0x00012cb8                RingIO_open
                0x000147fc                RingIO_getvAttribute
                0x000143fc                RingIO_acquire
                0x00013e00                RingIO_getEmptySize
                0x00014328                RingIO_setWaterMark
                0x0001466c                RingIO_cancel
                0x00014728                RingIO_getAttribute
                0x000123f0                RingIO_create
                0x00013edc                RingIO_getValidAttrSize
                0x00011f9c                RingIO_setup
                0x00014a0c                RingIO_setvAttribute
                0x00014170                RingIO_getAcquiredSize
 .text          0x00014e58      0x5d4 /home/user/ti-ezsdk_dm816x-evm_5_05_01_04/component-sources/syslink_2_20_00_14/packages/ti/syslink/lib/syslink.a_debug(RingIOShm.o)
                0x00014fdc                RingIOShm_setup
                0x000152a0                RingIOShm_Params_init
                0x00015178                RingIOShm_destroy
                0x00014e58                RingIOShm_getConfig
 .text          0x0001542c     0x5bf8 /home/user/ti-ezsdk_dm816x-evm_5_05_01_04/component-sources/syslink_2_20_00_14/packages/ti/syslink/lib/syslink.a_debug(FrameQ.o)
                0x0001777c                FrameQ_freev
                0x00019554                FrameQ_sendNotify
                0x00017514                FrameQ_free
                0x00016ba4                FrameQ_close
                0x000185f0                FrameQ_getv
                0x00018aac                FrameQ_registerNotifier
                0x0001621c                FrameQ_open
                0x00017214                FrameQ_allocv
                0x00018f3c                FrameQ_unregisterNotifier
                0x00015a88                FrameQ_create
                0x00016f78                FrameQ_alloc
                0x0001a220                FrameQ_ShMem_Params_init
                0x00019e10                FrameQ_getvNumFreeFrames
                0x0001a0a4                FrameQ_control
                0x00019290                FrameQ_dup
                0x0001ae78                FrameQ_ShMem_sharedMemReq
                0x000199d0                FrameQ_getvNumFrames
                0x0001a3b8                FrameQ_Params_init
                0x00017a90                FrameQ_put
                0x0001542c                FrameQ_getConfig
                0x00019c38                FrameQ_getNumFreeFrames
                0x00018290                FrameQ_get
                0x00015870                FrameQ_destroy
                0x00019770                FrameQ_getNumFrames
                0x000155c8                FrameQ_setup
                0x00015e24                FrameQ_delete
                0x00017e2c                FrameQ_putv
 .text          0x0001b024     0x5f20 /home/user/ti-ezsdk_dm816x-evm_5_05_01_04/component-sources/syslink_2_20_00_14/packages/ti/syslink/lib/syslink.a_debug(FrameQBufMgr.o)
                0x0001fdf4                FrameQBufMgr_getKnlHandle
                0x0001d434                FrameQBufMgr_freev
                0x0001e590                FrameQBufMgr_add
                0x0001c780                FrameQBufMgr_close
                0x0001ecd4                FrameQBufMgr_writeBackFrameBuf
                0x0001fc0c                FrameQBufMgr_getId
                0x0001f8bc                FrameQBufMgr_translateAddr
                0x0001ba30                FrameQBufMgr_delete
                0x00020094                FrameQBufMgr_getvNumFreeFrames
                0x0001dbe8                FrameQBufMgr_dupv
                0x000203d0                FrameQBufMgr_isSupportedBufInterface
                0x0001cc40                FrameQBufMgr_allocv
                0x0001b474                FrameQBufMgr_destroy
                0x0001b024                FrameQBufMgr_getConfig
                0x0001d114                FrameQBufMgr_free
                0x0001f5a8                FrameQBufMgr_invalidate
                0x0001fcb0                FrameQBufMgr_getHandle
                0x0001fec0                FrameQBufMgr_getNumFreeFrames
                0x0001f284                FrameQBufMgr_writeBack
                0x00020390                FrameQBufMgr_isSupportedInterface
                0x0002042c                FrameQBufMgr_ShMem_Params_init
                0x0001b6a8                FrameQBufMgr_create
                0x0001e880                FrameQBufMgr_writeBackHeaderBuf
                0x00020328                FrameQBufMgr_getBaseHeaderSize
                0x0001d864                FrameQBufMgr_dup
                0x0001c950                FrameQBufMgr_alloc
                0x0001dfd8                FrameQBufMgr_registerNotifier
                0x0001efac                FrameQBufMgr_invalidateFrameBuf
                0x0001b1c8                FrameQBufMgr_setup
                0x0001e6ec                FrameQBufMgr_remove
                0x000205c4                FrameQBufMgr_Params_init
                0x0001e2fc                FrameQBufMgr_unregisterNotifier
                0x0001eaa0                FrameQBufMgr_invalidateHeaderBuf
                0x0001be64                FrameQBufMgr_open
 .text          0x00020f44     0x519c /home/user/ti-ezsdk_dm816x-evm_5_05_01_04/component-sources/syslink_2_20_00_14/packages/ti/syslink/lib/syslink.a_debug(ClientNotifyMgr.o)
                0x00024634                ClientNotifyMgr_sendNotification
                0x00025ba0                ClientNotifyMgr_sendForceNotificationMulti
                0x00023288                ClientNotifyMgr_close
                0x00024364                ClientNotifyMgr_disableNotification
                0x00020fa8                ClientNotifyMgr_sharedMemReq
                0x00022180                ClientNotifyMgr_create
                0x00021e34                ClientNotifyMgr_destroy
                0x00021120                ClientNotifyMgr_callBack
                0x00021a98                ClientNotifyMgr_setup
                0x00020f44                ClientNotifyMgr_sharedMemModReq
                0x000252ac                ClientNotifyMgr_sendNotificationMulti
                0x00023ae8                ClientNotifyMgr_unregisterClient
                0x000218f4                ClientNotifyMgr_getConfig
                0x0002408c                ClientNotifyMgr_enableNotification
                0x00024e0c                ClientNotifyMgr_sendForceNotification
                0x00021fe0                ClientNotifyMgr_Params_init
                0x00022b6c                ClientNotifyMgr_delete
                0x000233b0                ClientNotifyMgr_registerClient
                0x00023104                ClientNotifyMgr_open
 .text          0x000260e0     0x2440 /home/user/ti-ezsdk_dm816x-evm_5_05_01_04/component-sources/syslink_2_20_00_14/packages/ti/syslink/lib/syslink.a_debug(HeapMemMP.o)
                0x000260e0                HeapMemMP_getConfig
                0x000278e0                HeapMemMP_getStats
                0x000266ac                HeapMemMP_create
                0x00027b0c                HeapMemMP_getExtendedStats
                0x000281e8                _HeapMemMP_create
                0x00027ea4                HeapMemMP_getKnlHandle
                0x0002626c                HeapMemMP_setup
                0x000263f4                HeapMemMP_destroy
                0x00026524                HeapMemMP_Params_init
                0x0002802c                HeapMemMP_getUsrHandle
                0x000271f8                HeapMemMP_close
                0x00027d20                HeapMemMP_sharedMemReq
                0x000283e0                HeapMemMP_restore
                0x000269d0                HeapMemMP_delete
                0x00027684                HeapMemMP_free
                0x00027474                HeapMemMP_alloc
                0x00026c54                HeapMemMP_openByAddr
                0x00026f1c                HeapMemMP_open
 .text          0x00028520     0x2268 /home/user/ti-ezsdk_dm816x-evm_5_05_01_04/component-sources/syslink_2_20_00_14/packages/ti/syslink/lib/syslink.a_debug(HeapBufMP.o)
                0x00028afc                HeapBufMP_create
                0x0002962c                HeapBufMP_close
                0x00029084                HeapBufMP_openByAddr
                0x0002a27c                HeapBufMP_sharedMemReq
                0x00029f54                HeapBufMP_isBlocking
                0x00029d24                HeapBufMP_getStats
                0x0002883c                HeapBufMP_destroy
                0x000286ac                HeapBufMP_setup
                0x0002a58c                _HeapBufMP_create
                0x000298ac                HeapBufMP_alloc
                0x00028520                HeapBufMP_getConfig
                0x00028970                HeapBufMP_Params_init
                0x00028e08                HeapBufMP_delete
                0x0002a404                HeapBufMP_getKnlHandle
                0x00029ac0                HeapBufMP_free
                0x00029354                HeapBufMP_open
                0x0002a048                HeapBufMP_getExtendedStats
 .text          0x0002a788     0x2224 /home/user/ti-ezsdk_dm816x-evm_5_05_01_04/component-sources/syslink_2_20_00_14/packages/ti/syslink/lib/syslink.a_debug(GateMP.o)
                0x0002a788                GateMP_getConfig
                0x0002c508                GateMP_getDefaultRemote
                0x0002c040                GateMP_enter
                0x0002b0c0                GateMP_Instance_finalize
                0x0002a920                GateMP_setup
                0x0002b488                GateMP_delete
                0x0002ba14                GateMP_openByAddr
                0x0002af04                GateMP_Instance_init
                0x0002c60c                GateMP_getSharedAddr
                0x0002bd34                GateMP_close
                0x0002ad58                GateMP_Params_init
                0x0002b708                GateMP_open
                0x0002c7bc                GateMP_getLocalProtect
                0x0002b11c                _GateMP_create
                0x0002c3f0                GateMP_sharedMemReq
                0x0002c210                GateMP_leave
                0x0002c80c                GateMP_getRemoteProtect
                0x0002b254                GateMP_create
                0x0002c85c                GateMP_getKnlHandle
                0x0002ab98                GateMP_destroy
                0x0002c704                GateMP_setReserved
 .text          0x0002c9ac      0x5d4 /home/user/ti-ezsdk_dm816x-evm_5_05_01_04/component-sources/syslink_2_20_00_14/packages/ti/syslink/lib/syslink.a_debug(SharedRegionDrv.o)
                0x0002cc60                SharedRegionDrv_ioctl
                0x0002cb44                SharedRegionDrv_close
                0x0002c9ac                SharedRegionDrv_open
 .text          0x0002cf80      0x80c /home/user/ti-ezsdk_dm816x-evm_5_05_01_04/component-sources/syslink_2_20_00_14/packages/ti/syslink/lib/syslink.a_debug(NotifyDrvUsr.o)
                0x0002d610                _NotifyDrvUsr_eventWorker
                0x0002d2fc                NotifyDrvUsr_close
                0x0002d4d4                NotifyDrvUsr_ioctl
                0x0002cf80                NotifyDrvUsr_open
 .text          0x0002d78c      0x484 /home/user/ti-ezsdk_dm816x-evm_5_05_01_04/component-sources/syslink_2_20_00_14/packages/ti/syslink/lib/syslink.a_debug(HeapBufMPDrv.o)
                0x0002d78c                HeapBufMPDrv_open
                0x0002dad8                HeapBufMPDrv_ioctl
                0x0002d9bc                HeapBufMPDrv_close
 .text          0x0002dc10      0x464 /home/user/ti-ezsdk_dm816x-evm_5_05_01_04/component-sources/syslink_2_20_00_14/packages/ti/syslink/lib/syslink.a_debug(IpcDrv.o)
                0x0002dc10                IpcDrv_open
                0x0002df3c                IpcDrv_ioctl
                0x0002de20                IpcDrv_close
 .text          0x0002e074      0x3e8 /home/user/ti-ezsdk_dm816x-evm_5_05_01_04/component-sources/syslink_2_20_00_14/packages/ti/syslink/lib/syslink.a_debug(FrameQDrv.o)
                0x0002e324                FrameQDrv_ioctl
                0x0002e074                FrameQDrv_open
                0x0002e208                FrameQDrv_close
 .text          0x0002e45c      0x3e8 /home/user/ti-ezsdk_dm816x-evm_5_05_01_04/component-sources/syslink_2_20_00_14/packages/ti/syslink/lib/syslink.a_debug(FrameQBufMgrDrv.o)
                0x0002e45c                FrameQBufMgrDrv_open
                0x0002e5f0                FrameQBufMgrDrv_close
                0x0002e70c                FrameQBufMgrDrv_ioctl
 .text          0x0002e844      0x3e8 /home/user/ti-ezsdk_dm816x-evm_5_05_01_04/component-sources/syslink_2_20_00_14/packages/ti/syslink/lib/syslink.a_debug(ClientNotifyMgrDrv.o)
                0x0002e844                ClientNotifyMgrDrv_open
                0x0002eaf4                ClientNotifyMgrDrv_ioctl
                0x0002e9d8                ClientNotifyMgrDrv_close
 .text          0x0002ec2c      0x3e8 /home/user/ti-ezsdk_dm816x-evm_5_05_01_04/component-sources/syslink_2_20_00_14/packages/ti/syslink/lib/syslink.a_debug(RingIODrv.o)
                0x0002edc0                RingIODrv_close
                0x0002eedc                RingIODrv_ioctl
                0x0002ec2c                RingIODrv_open
 .text          0x0002f014      0x3e8 /home/user/ti-ezsdk_dm816x-evm_5_05_01_04/component-sources/syslink_2_20_00_14/packages/ti/syslink/lib/syslink.a_debug(RingIOShmDrv.o)
                0x0002f2c4                RingIOShmDrv_ioctl
                0x0002f1a8                RingIOShmDrv_close
                0x0002f014                RingIOShmDrv_open
 .text          0x0002f3fc      0x3ec /home/user/ti-ezsdk_dm816x-evm_5_05_01_04/component-sources/syslink_2_20_00_14/packages/ti/syslink/lib/syslink.a_debug(HeapMemMPDrv.o)
                0x0002f594                HeapMemMPDrv_close
                0x0002f6b0                HeapMemMPDrv_ioctl
                0x0002f3fc                HeapMemMPDrv_open
 .text          0x0002f7e8      0x3ec /home/user/ti-ezsdk_dm816x-evm_5_05_01_04/component-sources/syslink_2_20_00_14/packages/ti/syslink/lib/syslink.a_debug(GateMPDrv.o)
                0x0002f7e8                GateMPDrv_open
                0x0002f980                GateMPDrv_close
                0x0002fa9c                GateMPDrv_ioctl
 .text          0x0002fbd4       0x50 /home/user/ti-ezsdk_dm816x-evm_5_05_01_04/component-sources/syslink_2_20_00_14/packages/ti/syslink/lib/syslink.a_debug(OsalProcess.o)
                0x0002fbfc                OsalProcess_getTid
                0x0002fbd4                OsalProcess_getPid
 .text          0x0002fc24      0x5a8 /home/user/ti-ezsdk_dm816x-evm_5_05_01_04/component-sources/syslink_2_20_00_14/packages/ti/syslink/lib/syslink.a_debug(GateMutex.o)
                0x0002fe98                GateMutex_leave
                0x00030068                GateMutex_delete
                0x0002ff54                GateMutex_create
                0x0002fdc4                GateMutex_enter
                0x0002fc24                GateMutex_Instance_init
                0x0002fd2c                GateMutex_Instance_finalize
 .text          0x000301cc      0xa34 /home/user/ti-ezsdk_dm816x-evm_5_05_01_04/component-sources/syslink_2_20_00_14/packages/ti/syslink/lib/syslink.a_debug(Memory.o)
                0x00030958                Memory_getMaxDefaultTypeAlign
                0x000306d0                Memory_getStats
                0x00030b68                Memory_translate
                0x00030974                Memory_valloc
                0x000303e4                Memory_calloc
                0x000301cc                Memory_alloc
                0x00030804                Memory_query
                0x00030570                Memory_free
 .text          0x00030c00     0x15e4 /home/user/ti-ezsdk_dm816x-evm_5_05_01_04/component-sources/syslink_2_20_00_14/packages/ti/syslink/lib/syslink.a_debug(List.o)
                0x00031358                List_get
                0x00030f58                List_construct
                0x00031474                List_put
                0x000318d4                List_insert
                0x00030c00                List_Params_init
                0x0003104c                List_destruct
                0x00030cc8                List_create
                0x00030de8                List_delete
                0x00031aac                List_remove
                0x00031d8c                List_dequeue
                0x00031234                List_empty
                0x000315ec                List_next
                0x00031ec4                List_enqueue
                0x00031144                List_elemClear
                0x00032054                List_enqueueHead
                0x0003172c                List_prev
                0x00031c24                List_putHead
 .text          0x000321e4      0x600 /home/user/ti-ezsdk_dm816x-evm_5_05_01_04/component-sources/syslink_2_20_00_14/packages/ti/syslink/lib/syslink.a_debug(String.o)
                0x00032748                String_hash
                0x000324e8                String_cpy
                0x00032294                String_cmp
                0x000323c4                String_ncmp
                0x000326b4                String_hexToStr
                0x00032560                String_ncpy
                0x000321e4                String_cat
                0x00032640                String_len
 .text          0x000327e4      0x53c /home/user/ti-ezsdk_dm816x-evm_5_05_01_04/component-sources/syslink_2_20_00_14/packages/ti/syslink/lib/syslink.a_debug(Trace.o)
                0x000327e4                _GT_0trace
                0x00032acc                _GT_5trace
                0x00032cb4                _GT_setTrace
                0x00032864                _GT_1trace
                0x00032a20                _GT_4trace
                0x00032984                _GT_3trace
                0x000328f0                _GT_2trace
                0x00032b88                _GT_6trace
                0x00032c54                _GT_setFailureReason
 .text          0x00032d20     0x2de8 /home/user/ti-ezsdk_dm816x-evm_5_05_01_04/component-sources/syslink_2_20_00_14/packages/ti/syslink/lib/syslink.a_debug(NameServer.o)
                0x000332e8                NameServer_create
                0x00035440                NameServer_match
                0x00034aec                NameServer_getLocal
                0x00034040                NameServer_addUInt32
                0x00033598                NameServer_delete
                0x00033cfc                NameServer_add
                0x00033058                NameServer_destroy
                0x0003570c                NameServer_getHandle
                0x00035184                NameServer_getLocalUInt32
                0x00032ed8                NameServer_setup
                0x00033154                NameServer_Params_init
                0x0003446c                NameServer_removeEntry
                0x000337d8                NameServer_open
                0x000346a8                NameServer_get
                0x00033a94                NameServer_close
                0x0003421c                NameServer_remove
                0x00035938                NameServer_isRegistered
                0x00034eb0                NameServer_getUInt32
                0x00032d20                NameServer_getConfig
 .text          0x00035b08      0xcd0 /home/user/ti-ezsdk_dm816x-evm_5_05_01_04/component-sources/syslink_2_20_00_14/packages/ti/syslink/lib/syslink.a_debug(MultiProc.o)
                0x00035e64                MultiProc_destroy
                0x0003656c                MultiProc_self
                0x000364f8                MultiProc_getNumProcessors
                0x00035cc0                MultiProc_setup
                0x00035f60                MultiProc_setLocalId
                0x00036364                MultiProc_getName
                0x00036164                MultiProc_getId
                0x000365e0                MultiProc_getSlot
                0x00035b08                MultiProc_getConfig
 .text          0x000367d8      0x104 /home/user/ti-ezsdk_dm816x-evm_5_05_01_04/component-sources/syslink_2_20_00_14/packages/ti/syslink/lib/syslink.a_debug(Gate.o)
                0x0003683c                Gate_leaveSystem
                0x000367d8                Gate_enterSystem
 .text          0x000368dc       0xbc /home/user/ti-ezsdk_dm816x-evm_5_05_01_04/component-sources/syslink_2_20_00_14/packages/ti/syslink/lib/syslink.a_debug(SysLink.o)
                0x00036948                SysLink_destroy
                0x000368dc                SysLink_setup
 .text          0x00036998      0x4c0 /home/user/ti-ezsdk_dm816x-evm_5_05_01_04/component-sources/syslink_2_20_00_14/packages/ti/syslink/lib/syslink.a_debug(Cache.o)
                0x00036d68                Cache_setMode
                0x00036cb0                Cache_wait
                0x00036998                Cache_inv
                0x00036aa0                Cache_wb
                0x00036ba8                Cache_wbInv
 .text          0x00036e58      0x3ec /home/user/ti-ezsdk_dm816x-evm_5_05_01_04/component-sources/syslink_2_20_00_14/packages/ti/syslink/lib/syslink.a_debug(NameServerDrv.o)
                0x00036e58                NameServerDrv_open
                0x00036ff0                NameServerDrv_close
                0x0003710c                NameServerDrv_ioctl
 .text          0x00037244      0x3b8 /home/user/ti-ezsdk_dm816x-evm_5_05_01_04/component-sources/syslink_2_20_00_14/packages/ti/syslink/lib/syslink.a_debug(MultiProcDrv.o)
                0x000374f4                MultiProcDrv_ioctl
                0x000373d8                MultiProcDrv_close
                0x00037244                MultiProcDrv_open
 .text          0x000375fc      0x164 /home/user/ti-ezsdk_dm816x-evm_5_05_01_04/component-sources/syslink_2_20_00_14/packages/ti/syslink/lib/syslink.a_debug(TraceDrv.o)
                0x000375fc                TraceDrv_ioctl
 .text          0x00037760       0xf4 /home/user/ti-ezsdk_dm816x-evm_5_05_01_04/component-sources/syslink_2_20_00_14/packages/ti/syslink/lib/syslink.a_debug(CacheDrv.o)
                0x00037760                CacheDrv_ioctl
 .text          0x00037854     0x163c /home/user/ti-ezsdk_dm816x-evm_5_05_01_04/component-sources/syslink_2_20_00_14/packages/ti/syslink/lib/syslink.a_debug(MemoryOS.o)
                0x00038af8                MemoryOS_set
                0x00038960                MemoryOS_copy
                0x00038098                MemoryOS_map
                0x00037854                MemoryOS_setup
                0x00038c84                MemoryOS_translate
                0x00037d84                MemoryOS_alloc
                0x00037af4                MemoryOS_destroy
                0x00038604                MemoryOS_unmap
                0x00037e98                MemoryOS_calloc
                0x00037fa4                MemoryOS_free
 .text          0x00038e90      0x6f4 /home/user/ti-ezsdk_dm816x-evm_5_05_01_04/component-sources/syslink_2_20_00_14/packages/ti/syslink/lib/syslink.a_debug(OsalDrv.o)
                0x00039030                OsalDrv_close
                0x00038e90                OsalDrv_open
                0x00039364                OsalDrv_unmap
                0x00039444                OsalDrv_ioctl
                0x00039154                OsalDrv_map
 .text          0x00039584      0x52c /home/user/ti-ezsdk_dm816x-evm_5_05_01_04/component-sources/syslink_2_20_00_14/packages/ti/syslink/lib/syslink.a_debug(OsalMutex.o)
                0x000396e8                OsalMutex_delete
                0x00039584                OsalMutex_create
                0x00039850                OsalMutex_enter
                0x00039980                OsalMutex_leave
 .text          0x00039ab0       0x50 /home/user/ti-ezsdk_dm816x-evm_5_05_01_04/component-sources/syslink_2_20_00_14/packages/ti/syslink/lib/syslink.a_debug(OsalPrint.o)
                0x00039ab0                Osal_printf
 .text          0x00039b00     0x4d5c /home/user/ti-ezsdk_dm816x-evm_5_05_01_04/component-sources/syslink_2_20_00_14/packages/ti/syslink/lib/syslink.a_debug(ProcMgr.o)
                0x0003d150                ProcMgr_getSymbolAddress
                0x00039e3c                ProcMgr_destroy
                0x0003d8f8                ProcMgr_unmap
                0x0003a5d4                ProcMgr_delete
                0x0003bbd4                ProcMgr_load
                0x0003c068                ProcMgr_getStartParams
                0x0003b978                ProcMgr_detach
                0x0003e4c0                ProcMgr_getSectionData
                0x00039b00                ProcMgr_getConfig
                0x0003c1cc                ProcMgr_start
                0x0003dff0                ProcMgr_getMaxMemoryRegions
                0x0003c348                ProcMgr_stop
                0x0003a898                ProcMgr_open
                0x0003d3e8                ProcMgr_map
                0x0003a010                ProcMgr_Params_init
                0x0003beec                ProcMgr_unload
                0x0003b4f0                ProcMgr_attach
                0x0003c618                ProcMgr_read
                0x0003ccdc                ProcMgr_translateAddr
                0x0003a194                ProcMgr_create
                0x0003c4ac                ProcMgr_getState
                0x0003e6fc                ProcMgr_getLoadedFileId
                0x0003b374                ProcMgr_getAttachParams
                0x0003af40                ProcMgr_close
                0x0003c8b0                ProcMgr_write
                0x0003cb4c                ProcMgr_control
                0x0003e0b0                ProcMgr_getProcInfo
                0x0003e2ac                ProcMgr_getSectionInfo
                0x00039c84                ProcMgr_setup
 .text          0x0003e85c      0x504 /home/user/ti-ezsdk_dm816x-evm_5_05_01_04/component-sources/syslink_2_20_00_14/packages/ti/syslink/lib/syslink.a_debug(ProcMgrDrvUsr.o)
                0x0003e85c                ProcMgrDrvUsr_open
                0x0003e9f4                ProcMgrDrvUsr_close
                0x0003eb10                ProcMgrDrvUsr_ioctl
 .text          0x0003ed60      0xa24 /home/user/ti-ezsdk_dm816x-evm_5_05_01_04/component-sources/syslink_2_20_00_14/packages/ti/syslink/lib/syslink.a_debug(FrameQ_common.o)
                0x0003ee1c                FrameQ_getNumFrameBuffers
                0x0003f1ac                FrameQ_getFrameBufValidSize
                0x0003f5f0                FrameQ_setFrameBufDataStartOffset
                0x0003f45c                FrameQ_setFrameBufValidSize
                0x0003ef08                FrameQ_getFrameBuffer
                0x0003f05c                FrameQ_getFrameBufSize
                0x0003ed60                FrameQ_isSupportedInterface
                0x0003f304                FrameQ_getFrameBufDataStartOffset
                0x0003eda0                FrameQ_getExtendedHeaderPtr
 .text          0x0003f784     0x295c /home/user/ti-ezsdk_dm816x-evm_5_05_01_04/component-sources/syslink_2_20_00_14/packages/ti/syslink/lib/syslink.a_debug(ListMP.o)
                0x0003f784                ListMP_getConfig
                0x0003fd58                ListMP_create
                0x00041f9c                _ListMP_create
                0x00041d98                ListMP_prev
                0x00041934                ListMP_remove
                0x000409f8                ListMP_close
                0x0003f908                ListMP_setup
                0x0004051c                ListMP_open
                0x000407b8                ListMP_openByAddr
                0x000400cc                ListMP_delete
                0x000420bc                ListMP_getGate
                0x00040fd8                ListMP_getTail
                0x0003fa94                ListMP_destroy
                0x0004165c                ListMP_insert
                0x0003fbc8                ListMP_Params_init
                0x00040e14                ListMP_getHead
                0x00041400                ListMP_putTail
                0x00041b90                ListMP_next
                0x0004033c                ListMP_sharedMemReq
                0x000411a4                ListMP_putHead
                0x00040c58                ListMP_empty
 .text          0x000420e0     0x26ec /home/user/ti-ezsdk_dm816x-evm_5_05_01_04/component-sources/syslink_2_20_00_14/packages/ti/syslink/lib/syslink.a_debug(MessageQ.o)
                0x00042dd4                MessageQ_close
                0x00044088                MessageQ_setReplyQueue
                0x00043688                MessageQ_staticMsgInit
                0x0004420c                MessageQ_getQueueId
                0x000446d8                MessageQ_detach
                0x0004430c                MessageQ_setMsgTrace
                0x00043db4                MessageQ_unregisterHeap
                0x000420e0                MessageQ_getConfig
                0x000431e0                MessageQ_get
                0x00043968                MessageQ_free
                0x00042264                MessageQ_setup
                0x00042b54                MessageQ_open
                0x00042f84                MessageQ_put
                0x000437ec                MessageQ_alloc
                0x00042674                MessageQ_create
                0x000424e8                MessageQ_Params_init
                0x00043ef0                MessageQ_unblock
                0x000434a4                MessageQ_count
                0x000423f0                MessageQ_destroy
                0x000428c8                MessageQ_delete
                0x000445ac                MessageQ_attach
                0x00043b48                MessageQ_registerHeap
                0x00044484                MessageQ_sharedMemReq
 .text          0x000447cc      0x3ec /home/user/ti-ezsdk_dm816x-evm_5_05_01_04/component-sources/syslink_2_20_00_14/packages/ti/syslink/lib/syslink.a_debug(ListMPDrv.o)
                0x00044964                ListMPDrv_close
                0x00044a80                ListMPDrv_ioctl
                0x000447cc                ListMPDrv_open
 .text          0x00044bb8      0x498 /home/user/ti-ezsdk_dm816x-evm_5_05_01_04/component-sources/syslink_2_20_00_14/packages/ti/syslink/lib/syslink.a_debug(MessageQDrv.o)
                0x00044f18                MessageQDrv_ioctl
                0x00044bb8                MessageQDrv_open
                0x00044dfc                MessageQDrv_close
 .text          0x00045050       0x70 /home/user/CodeSourcery/Sourcery_G++_Lite/bin/../arm-none-linux-gnueabi/libc/usr/lib/libc_nonshared.a(elf-init.oS)
                0x00045050                __libc_csu_fini
                0x00045054                __libc_csu_init
 .text          0x000450c0      0x20c /home/user/CodeSourcery/Sourcery_G++_Lite/bin/../lib/gcc/arm-none-linux-gnueabi/4.3.3/libgcc.a(_udivsi3.o)
                0x000450c0                __udivsi3
                0x000450c0                __aeabi_uidiv
                0x000452ac                __aeabi_uidivmod
 .text          0x000452cc       0x10 /home/user/CodeSourcery/Sourcery_G++_Lite/bin/../lib/gcc/arm-none-linux-gnueabi/4.3.3/libgcc.a(_dvmd_lnx.o)
                0x000452cc                __aeabi_idiv0
                0x000452cc                __aeabi_ldiv0
 .text          0x000452dc        0x0 /home/user/CodeSourcery/Sourcery_G++_Lite/bin/../lib/gcc/arm-none-linux-gnueabi/4.3.3/crtend.o
 .text          0x000452dc        0x0 /home/user/CodeSourcery/Sourcery_G++_Lite/bin/../arm-none-linux-gnueabi/libc/usr/lib/crtn.o
 *(.gnu.warning)
 *(.glue_7t)
 .glue_7t       0x00000000        0x0 linker stubs
 *(.glue_7)
 .glue_7        0x00000000        0x0 linker stubs
 *(.vfp11_veneer)
 .vfp11_veneer  0x00000000        0x0 linker stubs
 *(.v4_bx)
 .v4_bx         0x00000000        0x0 linker stubs

.fini           0x000452dc        0x8
 *(.fini)
 .fini          0x000452dc        0x4 /home/user/CodeSourcery/Sourcery_G++_Lite/bin/../arm-none-linux-gnueabi/libc/usr/lib/crti.o
                0x000452dc                _fini
 .fini          0x000452e0        0x4 /home/user/CodeSourcery/Sourcery_G++_Lite/bin/../arm-none-linux-gnueabi/libc/usr/lib/crtn.o
                0x000452e4                PROVIDE (__etext, .)
                0x000452e4                PROVIDE (_etext, .)
                0x000452e4                PROVIDE (etext, .)

.rodata         0x000452e4    0x169b8
 *(.rodata .rodata.* .gnu.linkonce.r.*)
 .rodata.cst4   0x000452e4        0x4 /home/user/CodeSourcery/Sourcery_G++_Lite/bin/../arm-none-linux-gnueabi/libc/usr/lib/crt1.o
                0x000452e4                _IO_stdin_used
 .rodata        0x000452e8      0x244 bin/debug/obj/main_host.ov5T
 .rodata        0x0004552c      0x510 bin/debug/obj/App.ov5T
 .rodata        0x00045a3c     0x1358 /home/user/ti-ezsdk_dm816x-evm_5_05_01_04/component-sources/syslink_2_20_00_14/packages/ti/syslink/lib/syslink.a_debug(SharedRegion.o)
 .rodata        0x00046d94      0xc70 /home/user/ti-ezsdk_dm816x-evm_5_05_01_04/component-sources/syslink_2_20_00_14/packages/ti/syslink/lib/syslink.a_debug(Notify.o)
 .rodata        0x00047a04      0x8a0 /home/user/ti-ezsdk_dm816x-evm_5_05_01_04/component-sources/syslink_2_20_00_14/packages/ti/syslink/lib/syslink.a_debug(Ipc.o)
 .rodata        0x000482a4     0x1208 /home/user/ti-ezsdk_dm816x-evm_5_05_01_04/component-sources/syslink_2_20_00_14/packages/ti/syslink/lib/syslink.a_debug(RingIO.o)
 .rodata        0x000494ac      0x380 /home/user/ti-ezsdk_dm816x-evm_5_05_01_04/component-sources/syslink_2_20_00_14/packages/ti/syslink/lib/syslink.a_debug(RingIOShm.o)
 .rodata        0x0004982c     0x1cd0 /home/user/ti-ezsdk_dm816x-evm_5_05_01_04/component-sources/syslink_2_20_00_14/packages/ti/syslink/lib/syslink.a_debug(FrameQ.o)
 .rodata        0x0004b4fc     0x2078 /home/user/ti-ezsdk_dm816x-evm_5_05_01_04/component-sources/syslink_2_20_00_14/packages/ti/syslink/lib/syslink.a_debug(FrameQBufMgr.o)
 .rodata        0x0004d574     0x13e0 /home/user/ti-ezsdk_dm816x-evm_5_05_01_04/component-sources/syslink_2_20_00_14/packages/ti/syslink/lib/syslink.a_debug(ClientNotifyMgr.o)
 .rodata        0x0004e954      0xd40 /home/user/ti-ezsdk_dm816x-evm_5_05_01_04/component-sources/syslink_2_20_00_14/packages/ti/syslink/lib/syslink.a_debug(HeapMemMP.o)
 .rodata        0x0004f694      0xce0 /home/user/ti-ezsdk_dm816x-evm_5_05_01_04/component-sources/syslink_2_20_00_14/packages/ti/syslink/lib/syslink.a_debug(HeapBufMP.o)
 .rodata        0x00050374      0xa18 /home/user/ti-ezsdk_dm816x-evm_5_05_01_04/component-sources/syslink_2_20_00_14/packages/ti/syslink/lib/syslink.a_debug(GateMP.o)
 .rodata        0x00050d8c      0x334 /home/user/ti-ezsdk_dm816x-evm_5_05_01_04/component-sources/syslink_2_20_00_14/packages/ti/syslink/lib/syslink.a_debug(SharedRegionDrv.o)
 .rodata        0x000510c0      0x440 /home/user/ti-ezsdk_dm816x-evm_5_05_01_04/component-sources/syslink_2_20_00_14/packages/ti/syslink/lib/syslink.a_debug(NotifyDrvUsr.o)
 .rodata        0x00051500      0x2f0 /home/user/ti-ezsdk_dm816x-evm_5_05_01_04/component-sources/syslink_2_20_00_14/packages/ti/syslink/lib/syslink.a_debug(HeapBufMPDrv.o)
 .rodata        0x000517f0      0x298 /home/user/ti-ezsdk_dm816x-evm_5_05_01_04/component-sources/syslink_2_20_00_14/packages/ti/syslink/lib/syslink.a_debug(IpcDrv.o)
 .rodata        0x00051a88      0x2a0 /home/user/ti-ezsdk_dm816x-evm_5_05_01_04/component-sources/syslink_2_20_00_14/packages/ti/syslink/lib/syslink.a_debug(FrameQDrv.o)
 .rodata        0x00051d28      0x304 /home/user/ti-ezsdk_dm816x-evm_5_05_01_04/component-sources/syslink_2_20_00_14/packages/ti/syslink/lib/syslink.a_debug(FrameQBufMgrDrv.o)
 .rodata        0x0005202c      0x330 /home/user/ti-ezsdk_dm816x-evm_5_05_01_04/component-sources/syslink_2_20_00_14/packages/ti/syslink/lib/syslink.a_debug(ClientNotifyMgrDrv.o)
 .rodata        0x0005235c      0x2a0 /home/user/ti-ezsdk_dm816x-evm_5_05_01_04/component-sources/syslink_2_20_00_14/packages/ti/syslink/lib/syslink.a_debug(RingIODrv.o)
 .rodata        0x000525fc      0x2c8 /home/user/ti-ezsdk_dm816x-evm_5_05_01_04/component-sources/syslink_2_20_00_14/packages/ti/syslink/lib/syslink.a_debug(RingIOShmDrv.o)
 .rodata        0x000528c4      0x2d4 /home/user/ti-ezsdk_dm816x-evm_5_05_01_04/component-sources/syslink_2_20_00_14/packages/ti/syslink/lib/syslink.a_debug(HeapMemMPDrv.o)
 .rodata        0x00052b98      0x2a0 /home/user/ti-ezsdk_dm816x-evm_5_05_01_04/component-sources/syslink_2_20_00_14/packages/ti/syslink/lib/syslink.a_debug(GateMPDrv.o)
 .rodata        0x00052e38      0x260 /home/user/ti-ezsdk_dm816x-evm_5_05_01_04/component-sources/syslink_2_20_00_14/packages/ti/syslink/lib/syslink.a_debug(GateMutex.o)
 .rodata        0x00053098      0x53c /home/user/ti-ezsdk_dm816x-evm_5_05_01_04/component-sources/syslink_2_20_00_14/packages/ti/syslink/lib/syslink.a_debug(Memory.o)
 .rodata        0x000535d4      0x884 /home/user/ti-ezsdk_dm816x-evm_5_05_01_04/component-sources/syslink_2_20_00_14/packages/ti/syslink/lib/syslink.a_debug(List.o)
 .rodata        0x00053e58      0x414 /home/user/ti-ezsdk_dm816x-evm_5_05_01_04/component-sources/syslink_2_20_00_14/packages/ti/syslink/lib/syslink.a_debug(String.o)
 .rodata        0x0005426c       0x50 /home/user/ti-ezsdk_dm816x-evm_5_05_01_04/component-sources/syslink_2_20_00_14/packages/ti/syslink/lib/syslink.a_debug(Trace.o)
 .rodata        0x000542bc      0xe34 /home/user/ti-ezsdk_dm816x-evm_5_05_01_04/component-sources/syslink_2_20_00_14/packages/ti/syslink/lib/syslink.a_debug(NameServer.o)
 .rodata        0x000550f0      0x644 /home/user/ti-ezsdk_dm816x-evm_5_05_01_04/component-sources/syslink_2_20_00_14/packages/ti/syslink/lib/syslink.a_debug(MultiProc.o)
 .rodata        0x00055734       0xb8 /home/user/ti-ezsdk_dm816x-evm_5_05_01_04/component-sources/syslink_2_20_00_14/packages/ti/syslink/lib/syslink.a_debug(Gate.o)
 .rodata        0x000557ec       0x68 /home/user/ti-ezsdk_dm816x-evm_5_05_01_04/component-sources/syslink_2_20_00_14/packages/ti/syslink/lib/syslink.a_debug(SysLink.o)
 .rodata        0x00055854      0x280 /home/user/ti-ezsdk_dm816x-evm_5_05_01_04/component-sources/syslink_2_20_00_14/packages/ti/syslink/lib/syslink.a_debug(Cache.o)
 .rodata        0x00055ad4      0x2f8 /home/user/ti-ezsdk_dm816x-evm_5_05_01_04/component-sources/syslink_2_20_00_14/packages/ti/syslink/lib/syslink.a_debug(NameServerDrv.o)
 .rodata        0x00055dcc      0x288 /home/user/ti-ezsdk_dm816x-evm_5_05_01_04/component-sources/syslink_2_20_00_14/packages/ti/syslink/lib/syslink.a_debug(MultiProcDrv.o)
 .rodata        0x00056054      0x138 /home/user/ti-ezsdk_dm816x-evm_5_05_01_04/component-sources/syslink_2_20_00_14/packages/ti/syslink/lib/syslink.a_debug(TraceDrv.o)
 .rodata        0x0005618c      0x108 /home/user/ti-ezsdk_dm816x-evm_5_05_01_04/component-sources/syslink_2_20_00_14/packages/ti/syslink/lib/syslink.a_debug(CacheDrv.o)
 .rodata        0x00056294      0x940 /home/user/ti-ezsdk_dm816x-evm_5_05_01_04/component-sources/syslink_2_20_00_14/packages/ti/syslink/lib/syslink.a_debug(MemoryOS.o)
 .rodata        0x00056bd4      0x3ac /home/user/ti-ezsdk_dm816x-evm_5_05_01_04/component-sources/syslink_2_20_00_14/packages/ti/syslink/lib/syslink.a_debug(OsalDrv.o)
 .rodata        0x00056f80      0x360 /home/user/ti-ezsdk_dm816x-evm_5_05_01_04/component-sources/syslink_2_20_00_14/packages/ti/syslink/lib/syslink.a_debug(OsalMutex.o)
 .rodata        0x000572e0        0x4 /home/user/ti-ezsdk_dm816x-evm_5_05_01_04/component-sources/syslink_2_20_00_14/packages/ti/syslink/lib/syslink.a_debug(OsalPrint.o)
 .rodata        0x000572e4     0x1ea4 /home/user/ti-ezsdk_dm816x-evm_5_05_01_04/component-sources/syslink_2_20_00_14/packages/ti/syslink/lib/syslink.a_debug(ProcMgr.o)
 .rodata        0x00059188      0x390 /home/user/ti-ezsdk_dm816x-evm_5_05_01_04/component-sources/syslink_2_20_00_14/packages/ti/syslink/lib/syslink.a_debug(ProcMgrDrvUsr.o)
 .rodata        0x00059518      0x620 /home/user/ti-ezsdk_dm816x-evm_5_05_01_04/component-sources/syslink_2_20_00_14/packages/ti/syslink/lib/syslink.a_debug(FrameQ_common.o)
 .rodata        0x00059b38      0xc20 /home/user/ti-ezsdk_dm816x-evm_5_05_01_04/component-sources/syslink_2_20_00_14/packages/ti/syslink/lib/syslink.a_debug(ListMP.o)
 .rodata        0x0005a758      0xfc4 /home/user/ti-ezsdk_dm816x-evm_5_05_01_04/component-sources/syslink_2_20_00_14/packages/ti/syslink/lib/syslink.a_debug(MessageQ.o)
 .rodata        0x0005b71c      0x2a0 /home/user/ti-ezsdk_dm816x-evm_5_05_01_04/component-sources/syslink_2_20_00_14/packages/ti/syslink/lib/syslink.a_debug(ListMPDrv.o)
 .rodata        0x0005b9bc      0x2e0 /home/user/ti-ezsdk_dm816x-evm_5_05_01_04/component-sources/syslink_2_20_00_14/packages/ti/syslink/lib/syslink.a_debug(MessageQDrv.o)

.rodata1
 *(.rodata1)

.ARM.extab      0x0005bc9c     0x1698
 *(.ARM.extab* .gnu.linkonce.armextab.*)
 .ARM.extab     0x0005bc9c        0x0 /home/user/CodeSourcery/Sourcery_G++_Lite/bin/../arm-none-linux-gnueabi/libc/usr/lib/crt1.o
 .ARM.extab     0x0005bc9c        0x0 /home/user/CodeSourcery/Sourcery_G++_Lite/bin/../arm-none-linux-gnueabi/libc/usr/lib/crti.o
 .ARM.extab     0x0005bc9c        0x0 /home/user/CodeSourcery/Sourcery_G++_Lite/bin/../lib/gcc/arm-none-linux-gnueabi/4.3.3/crtbegin.o
 .ARM.extab     0x0005bc9c       0x24 bin/debug/obj/main_host.ov5T
 .ARM.extab     0x0005bcc0       0x3c bin/debug/obj/App.ov5T
 .ARM.extab     0x0005bcfc      0x15c /home/user/ti-ezsdk_dm816x-evm_5_05_01_04/component-sources/syslink_2_20_00_14/packages/ti/syslink/lib/syslink.a_debug(SharedRegion.o)
 .ARM.extab     0x0005be58       0xcc /home/user/ti-ezsdk_dm816x-evm_5_05_01_04/component-sources/syslink_2_20_00_14/packages/ti/syslink/lib/syslink.a_debug(Notify.o)
 .ARM.extab     0x0005bf24       0x6c /home/user/ti-ezsdk_dm816x-evm_5_05_01_04/component-sources/syslink_2_20_00_14/packages/ti/syslink/lib/syslink.a_debug(Ipc.o)
 .ARM.extab     0x0005bf90      0x168 /home/user/ti-ezsdk_dm816x-evm_5_05_01_04/component-sources/syslink_2_20_00_14/packages/ti/syslink/lib/syslink.a_debug(RingIO.o)
 .ARM.extab     0x0005c0f8       0x30 /home/user/ti-ezsdk_dm816x-evm_5_05_01_04/component-sources/syslink_2_20_00_14/packages/ti/syslink/lib/syslink.a_debug(RingIOShm.o)
 .ARM.extab     0x0005c128      0x168 /home/user/ti-ezsdk_dm816x-evm_5_05_01_04/component-sources/syslink_2_20_00_14/packages/ti/syslink/lib/syslink.a_debug(FrameQ.o)
 .ARM.extab     0x0005c290      0x1a4 /home/user/ti-ezsdk_dm816x-evm_5_05_01_04/component-sources/syslink_2_20_00_14/packages/ti/syslink/lib/syslink.a_debug(FrameQBufMgr.o)
 .ARM.extab     0x0005c434       0xe4 /home/user/ti-ezsdk_dm816x-evm_5_05_01_04/component-sources/syslink_2_20_00_14/packages/ti/syslink/lib/syslink.a_debug(ClientNotifyMgr.o)
 .ARM.extab     0x0005c518       0xd8 /home/user/ti-ezsdk_dm816x-evm_5_05_01_04/component-sources/syslink_2_20_00_14/packages/ti/syslink/lib/syslink.a_debug(HeapMemMP.o)
 .ARM.extab     0x0005c5f0       0xcc /home/user/ti-ezsdk_dm816x-evm_5_05_01_04/component-sources/syslink_2_20_00_14/packages/ti/syslink/lib/syslink.a_debug(HeapBufMP.o)
 .ARM.extab     0x0005c6bc       0xfc /home/user/ti-ezsdk_dm816x-evm_5_05_01_04/component-sources/syslink_2_20_00_14/packages/ti/syslink/lib/syslink.a_debug(GateMP.o)
 .ARM.extab     0x0005c7b8       0x24 /home/user/ti-ezsdk_dm816x-evm_5_05_01_04/component-sources/syslink_2_20_00_14/packages/ti/syslink/lib/syslink.a_debug(SharedRegionDrv.o)
 .ARM.extab     0x0005c7dc       0x30 /home/user/ti-ezsdk_dm816x-evm_5_05_01_04/component-sources/syslink_2_20_00_14/packages/ti/syslink/lib/syslink.a_debug(NotifyDrvUsr.o)
 .ARM.extab     0x0005c80c       0x24 /home/user/ti-ezsdk_dm816x-evm_5_05_01_04/component-sources/syslink_2_20_00_14/packages/ti/syslink/lib/syslink.a_debug(HeapBufMPDrv.o)
 .ARM.extab     0x0005c830       0x24 /home/user/ti-ezsdk_dm816x-evm_5_05_01_04/component-sources/syslink_2_20_00_14/packages/ti/syslink/lib/syslink.a_debug(IpcDrv.o)
 .ARM.extab     0x0005c854       0x24 /home/user/ti-ezsdk_dm816x-evm_5_05_01_04/component-sources/syslink_2_20_00_14/packages/ti/syslink/lib/syslink.a_debug(FrameQDrv.o)
 .ARM.extab     0x0005c878       0x24 /home/user/ti-ezsdk_dm816x-evm_5_05_01_04/component-sources/syslink_2_20_00_14/packages/ti/syslink/lib/syslink.a_debug(FrameQBufMgrDrv.o)
 .ARM.extab     0x0005c89c       0x24 /home/user/ti-ezsdk_dm816x-evm_5_05_01_04/component-sources/syslink_2_20_00_14/packages/ti/syslink/lib/syslink.a_debug(ClientNotifyMgrDrv.o)
 .ARM.extab     0x0005c8c0       0x24 /home/user/ti-ezsdk_dm816x-evm_5_05_01_04/component-sources/syslink_2_20_00_14/packages/ti/syslink/lib/syslink.a_debug(RingIODrv.o)
 .ARM.extab     0x0005c8e4       0x24 /home/user/ti-ezsdk_dm816x-evm_5_05_01_04/component-sources/syslink_2_20_00_14/packages/ti/syslink/lib/syslink.a_debug(RingIOShmDrv.o)
 .ARM.extab     0x0005c908       0x24 /home/user/ti-ezsdk_dm816x-evm_5_05_01_04/component-sources/syslink_2_20_00_14/packages/ti/syslink/lib/syslink.a_debug(HeapMemMPDrv.o)
 .ARM.extab     0x0005c92c       0x24 /home/user/ti-ezsdk_dm816x-evm_5_05_01_04/component-sources/syslink_2_20_00_14/packages/ti/syslink/lib/syslink.a_debug(GateMPDrv.o)
 .ARM.extab     0x0005c950       0x18 /home/user/ti-ezsdk_dm816x-evm_5_05_01_04/component-sources/syslink_2_20_00_14/packages/ti/syslink/lib/syslink.a_debug(OsalProcess.o)
 .ARM.extab     0x0005c968       0x48 /home/user/ti-ezsdk_dm816x-evm_5_05_01_04/component-sources/syslink_2_20_00_14/packages/ti/syslink/lib/syslink.a_debug(GateMutex.o)
 .ARM.extab     0x0005c9b0       0x84 /home/user/ti-ezsdk_dm816x-evm_5_05_01_04/component-sources/syslink_2_20_00_14/packages/ti/syslink/lib/syslink.a_debug(Memory.o)
 .ARM.extab     0x0005ca34       0xcc /home/user/ti-ezsdk_dm816x-evm_5_05_01_04/component-sources/syslink_2_20_00_14/packages/ti/syslink/lib/syslink.a_debug(List.o)
 .ARM.extab     0x0005cb00       0x18 /home/user/ti-ezsdk_dm816x-evm_5_05_01_04/component-sources/syslink_2_20_00_14/packages/ti/syslink/lib/syslink.a_debug(String.o)
 .ARM.extab     0x0005cb18       0x6c /home/user/ti-ezsdk_dm816x-evm_5_05_01_04/component-sources/syslink_2_20_00_14/packages/ti/syslink/lib/syslink.a_debug(Trace.o)
 .ARM.extab     0x0005cb84       0xe4 /home/user/ti-ezsdk_dm816x-evm_5_05_01_04/component-sources/syslink_2_20_00_14/packages/ti/syslink/lib/syslink.a_debug(NameServer.o)
 .ARM.extab     0x0005cc68       0x6c /home/user/ti-ezsdk_dm816x-evm_5_05_01_04/component-sources/syslink_2_20_00_14/packages/ti/syslink/lib/syslink.a_debug(MultiProc.o)
 .ARM.extab     0x0005ccd4       0x30 /home/user/ti-ezsdk_dm816x-evm_5_05_01_04/component-sources/syslink_2_20_00_14/packages/ti/syslink/lib/syslink.a_debug(Gate.o)
 .ARM.extab     0x0005cd04       0x18 /home/user/ti-ezsdk_dm816x-evm_5_05_01_04/component-sources/syslink_2_20_00_14/packages/ti/syslink/lib/syslink.a_debug(SysLink.o)
 .ARM.extab     0x0005cd1c       0x3c /home/user/ti-ezsdk_dm816x-evm_5_05_01_04/component-sources/syslink_2_20_00_14/packages/ti/syslink/lib/syslink.a_debug(Cache.o)
 .ARM.extab     0x0005cd58       0x24 /home/user/ti-ezsdk_dm816x-evm_5_05_01_04/component-sources/syslink_2_20_00_14/packages/ti/syslink/lib/syslink.a_debug(NameServerDrv.o)
 .ARM.extab     0x0005cd7c       0x24 /home/user/ti-ezsdk_dm816x-evm_5_05_01_04/component-sources/syslink_2_20_00_14/packages/ti/syslink/lib/syslink.a_debug(MultiProcDrv.o)
 .ARM.extab     0x0005cda0        0xc /home/user/ti-ezsdk_dm816x-evm_5_05_01_04/component-sources/syslink_2_20_00_14/packages/ti/syslink/lib/syslink.a_debug(TraceDrv.o)
 .ARM.extab     0x0005cdac        0xc /home/user/ti-ezsdk_dm816x-evm_5_05_01_04/component-sources/syslink_2_20_00_14/packages/ti/syslink/lib/syslink.a_debug(CacheDrv.o)
 .ARM.extab     0x0005cdb8       0xcc /home/user/ti-ezsdk_dm816x-evm_5_05_01_04/component-sources/syslink_2_20_00_14/packages/ti/syslink/lib/syslink.a_debug(MemoryOS.o)
 .ARM.extab     0x0005ce84       0x3c /home/user/ti-ezsdk_dm816x-evm_5_05_01_04/component-sources/syslink_2_20_00_14/packages/ti/syslink/lib/syslink.a_debug(OsalDrv.o)
 .ARM.extab     0x0005cec0       0x30 /home/user/ti-ezsdk_dm816x-evm_5_05_01_04/component-sources/syslink_2_20_00_14/packages/ti/syslink/lib/syslink.a_debug(OsalMutex.o)
 .ARM.extab     0x0005cef0        0xc /home/user/ti-ezsdk_dm816x-evm_5_05_01_04/component-sources/syslink_2_20_00_14/packages/ti/syslink/lib/syslink.a_debug(OsalPrint.o)
 .ARM.extab     0x0005cefc      0x15c /home/user/ti-ezsdk_dm816x-evm_5_05_01_04/component-sources/syslink_2_20_00_14/packages/ti/syslink/lib/syslink.a_debug(ProcMgr.o)
 .ARM.extab     0x0005d058       0x24 /home/user/ti-ezsdk_dm816x-evm_5_05_01_04/component-sources/syslink_2_20_00_14/packages/ti/syslink/lib/syslink.a_debug(ProcMgrDrvUsr.o)
 .ARM.extab     0x0005d07c       0x60 /home/user/ti-ezsdk_dm816x-evm_5_05_01_04/component-sources/syslink_2_20_00_14/packages/ti/syslink/lib/syslink.a_debug(FrameQ_common.o)
 .ARM.extab     0x0005d0dc       0xf0 /home/user/ti-ezsdk_dm816x-evm_5_05_01_04/component-sources/syslink_2_20_00_14/packages/ti/syslink/lib/syslink.a_debug(ListMP.o)
 .ARM.extab     0x0005d1cc      0x120 /home/user/ti-ezsdk_dm816x-evm_5_05_01_04/component-sources/syslink_2_20_00_14/packages/ti/syslink/lib/syslink.a_debug(MessageQ.o)
 .ARM.extab     0x0005d2ec       0x24 /home/user/ti-ezsdk_dm816x-evm_5_05_01_04/component-sources/syslink_2_20_00_14/packages/ti/syslink/lib/syslink.a_debug(ListMPDrv.o)
 .ARM.extab     0x0005d310       0x24 /home/user/ti-ezsdk_dm816x-evm_5_05_01_04/component-sources/syslink_2_20_00_14/packages/ti/syslink/lib/syslink.a_debug(MessageQDrv.o)
 .ARM.extab     0x0005d334        0x0 /home/user/CodeSourcery/Sourcery_G++_Lite/bin/../arm-none-linux-gnueabi/libc/usr/lib/libc_nonshared.a(elf-init.oS)
 .ARM.extab.init
                0x0005d334        0x0 /home/user/CodeSourcery/Sourcery_G++_Lite/bin/../arm-none-linux-gnueabi/libc/usr/lib/crtn.o
 .ARM.extab.fini
                0x0005d334        0x0 /home/user/CodeSourcery/Sourcery_G++_Lite/bin/../arm-none-linux-gnueabi/libc/usr/lib/crtn.o
                0x0005d334                __exidx_start = .

.ARM.exidx      0x0005d334      0xf90
 *(.ARM.exidx* .gnu.linkonce.armexidx.*)
 .ARM.exidx     0x0005d344        0x0 /home/user/CodeSourcery/Sourcery_G++_Lite/bin/../arm-none-linux-gnueabi/libc/usr/lib/crt1.o
                                  0x8 (size before relaxing)
 .ARM.exidx     0x0005d344        0x8 /home/user/CodeSourcery/Sourcery_G++_Lite/bin/../arm-none-linux-gnueabi/libc/usr/lib/crti.o
 .ARM.exidx     0x0005d34c        0x8 /home/user/CodeSourcery/Sourcery_G++_Lite/bin/../lib/gcc/arm-none-linux-gnueabi/4.3.3/crtbegin.o
                                 0x10 (size before relaxing)
 .ARM.exidx     0x0005d354       0x18 bin/debug/obj/main_host.ov5T
 .ARM.exidx     0x0005d36c       0x28 bin/debug/obj/App.ov5T
 .ARM.exidx     0x0005d394       0xf0 /home/user/ti-ezsdk_dm816x-evm_5_05_01_04/component-sources/syslink_2_20_00_14/packages/ti/syslink/lib/syslink.a_debug(SharedRegion.o)
 .ARM.exidx     0x0005d484       0x88 /home/user/ti-ezsdk_dm816x-evm_5_05_01_04/component-sources/syslink_2_20_00_14/packages/ti/syslink/lib/syslink.a_debug(Notify.o)
 .ARM.exidx     0x0005d50c       0x48 /home/user/ti-ezsdk_dm816x-evm_5_05_01_04/component-sources/syslink_2_20_00_14/packages/ti/syslink/lib/syslink.a_debug(Ipc.o)
 .ARM.exidx     0x0005d554       0xf0 /home/user/ti-ezsdk_dm816x-evm_5_05_01_04/component-sources/syslink_2_20_00_14/packages/ti/syslink/lib/syslink.a_debug(RingIO.o)
 .ARM.exidx     0x0005d644       0x20 /home/user/ti-ezsdk_dm816x-evm_5_05_01_04/component-sources/syslink_2_20_00_14/packages/ti/syslink/lib/syslink.a_debug(RingIOShm.o)
 .ARM.exidx     0x0005d664       0xf0 /home/user/ti-ezsdk_dm816x-evm_5_05_01_04/component-sources/syslink_2_20_00_14/packages/ti/syslink/lib/syslink.a_debug(FrameQ.o)
 .ARM.exidx     0x0005d754      0x120 /home/user/ti-ezsdk_dm816x-evm_5_05_01_04/component-sources/syslink_2_20_00_14/packages/ti/syslink/lib/syslink.a_debug(FrameQBufMgr.o)
                                0x128 (size before relaxing)
 .ARM.exidx     0x0005d874       0x98 /home/user/ti-ezsdk_dm816x-evm_5_05_01_04/component-sources/syslink_2_20_00_14/packages/ti/syslink/lib/syslink.a_debug(ClientNotifyMgr.o)
 .ARM.exidx     0x0005d90c       0x90 /home/user/ti-ezsdk_dm816x-evm_5_05_01_04/component-sources/syslink_2_20_00_14/packages/ti/syslink/lib/syslink.a_debug(HeapMemMP.o)
 .ARM.exidx     0x0005d99c       0x88 /home/user/ti-ezsdk_dm816x-evm_5_05_01_04/component-sources/syslink_2_20_00_14/packages/ti/syslink/lib/syslink.a_debug(HeapBufMP.o)
 .ARM.exidx     0x0005da24       0xa8 /home/user/ti-ezsdk_dm816x-evm_5_05_01_04/component-sources/syslink_2_20_00_14/packages/ti/syslink/lib/syslink.a_debug(GateMP.o)
 .ARM.exidx     0x0005dacc       0x18 /home/user/ti-ezsdk_dm816x-evm_5_05_01_04/component-sources/syslink_2_20_00_14/packages/ti/syslink/lib/syslink.a_debug(SharedRegionDrv.o)
 .ARM.exidx     0x0005dae4       0x20 /home/user/ti-ezsdk_dm816x-evm_5_05_01_04/component-sources/syslink_2_20_00_14/packages/ti/syslink/lib/syslink.a_debug(NotifyDrvUsr.o)
 .ARM.exidx     0x0005db04       0x18 /home/user/ti-ezsdk_dm816x-evm_5_05_01_04/component-sources/syslink_2_20_00_14/packages/ti/syslink/lib/syslink.a_debug(HeapBufMPDrv.o)
 .ARM.exidx     0x0005db1c       0x18 /home/user/ti-ezsdk_dm816x-evm_5_05_01_04/component-sources/syslink_2_20_00_14/packages/ti/syslink/lib/syslink.a_debug(IpcDrv.o)
 .ARM.exidx     0x0005db34       0x18 /home/user/ti-ezsdk_dm816x-evm_5_05_01_04/component-sources/syslink_2_20_00_14/packages/ti/syslink/lib/syslink.a_debug(FrameQDrv.o)
 .ARM.exidx     0x0005db4c       0x18 /home/user/ti-ezsdk_dm816x-evm_5_05_01_04/component-sources/syslink_2_20_00_14/packages/ti/syslink/lib/syslink.a_debug(FrameQBufMgrDrv.o)
 .ARM.exidx     0x0005db64       0x18 /home/user/ti-ezsdk_dm816x-evm_5_05_01_04/component-sources/syslink_2_20_00_14/packages/ti/syslink/lib/syslink.a_debug(ClientNotifyMgrDrv.o)
 .ARM.exidx     0x0005db7c       0x18 /home/user/ti-ezsdk_dm816x-evm_5_05_01_04/component-sources/syslink_2_20_00_14/packages/ti/syslink/lib/syslink.a_debug(RingIODrv.o)
 .ARM.exidx     0x0005db94       0x18 /home/user/ti-ezsdk_dm816x-evm_5_05_01_04/component-sources/syslink_2_20_00_14/packages/ti/syslink/lib/syslink.a_debug(RingIOShmDrv.o)
 .ARM.exidx     0x0005dbac       0x18 /home/user/ti-ezsdk_dm816x-evm_5_05_01_04/component-sources/syslink_2_20_00_14/packages/ti/syslink/lib/syslink.a_debug(HeapMemMPDrv.o)
 .ARM.exidx     0x0005dbc4       0x18 /home/user/ti-ezsdk_dm816x-evm_5_05_01_04/component-sources/syslink_2_20_00_14/packages/ti/syslink/lib/syslink.a_debug(GateMPDrv.o)
 .ARM.exidx     0x0005dbdc       0x10 /home/user/ti-ezsdk_dm816x-evm_5_05_01_04/component-sources/syslink_2_20_00_14/packages/ti/syslink/lib/syslink.a_debug(OsalProcess.o)
 .ARM.exidx     0x0005dbec       0x30 /home/user/ti-ezsdk_dm816x-evm_5_05_01_04/component-sources/syslink_2_20_00_14/packages/ti/syslink/lib/syslink.a_debug(GateMutex.o)
 .ARM.exidx     0x0005dc1c       0x60 /home/user/ti-ezsdk_dm816x-evm_5_05_01_04/component-sources/syslink_2_20_00_14/packages/ti/syslink/lib/syslink.a_debug(Memory.o)
 .ARM.exidx     0x0005dc7c       0x88 /home/user/ti-ezsdk_dm816x-evm_5_05_01_04/component-sources/syslink_2_20_00_14/packages/ti/syslink/lib/syslink.a_debug(List.o)
 .ARM.exidx     0x0005dd04       0x20 /home/user/ti-ezsdk_dm816x-evm_5_05_01_04/component-sources/syslink_2_20_00_14/packages/ti/syslink/lib/syslink.a_debug(String.o)
                                 0x40 (size before relaxing)
 .ARM.exidx     0x0005dd24       0x48 /home/user/ti-ezsdk_dm816x-evm_5_05_01_04/component-sources/syslink_2_20_00_14/packages/ti/syslink/lib/syslink.a_debug(Trace.o)
 .ARM.exidx     0x0005dd6c       0x98 /home/user/ti-ezsdk_dm816x-evm_5_05_01_04/component-sources/syslink_2_20_00_14/packages/ti/syslink/lib/syslink.a_debug(NameServer.o)
 .ARM.exidx     0x0005de04       0x48 /home/user/ti-ezsdk_dm816x-evm_5_05_01_04/component-sources/syslink_2_20_00_14/packages/ti/syslink/lib/syslink.a_debug(MultiProc.o)
 .ARM.exidx     0x0005de4c       0x20 /home/user/ti-ezsdk_dm816x-evm_5_05_01_04/component-sources/syslink_2_20_00_14/packages/ti/syslink/lib/syslink.a_debug(Gate.o)
 .ARM.exidx     0x0005de6c       0x10 /home/user/ti-ezsdk_dm816x-evm_5_05_01_04/component-sources/syslink_2_20_00_14/packages/ti/syslink/lib/syslink.a_debug(SysLink.o)
 .ARM.exidx     0x0005de7c       0x28 /home/user/ti-ezsdk_dm816x-evm_5_05_01_04/component-sources/syslink_2_20_00_14/packages/ti/syslink/lib/syslink.a_debug(Cache.o)
 .ARM.exidx     0x0005dea4       0x18 /home/user/ti-ezsdk_dm816x-evm_5_05_01_04/component-sources/syslink_2_20_00_14/packages/ti/syslink/lib/syslink.a_debug(NameServerDrv.o)
 .ARM.exidx     0x0005debc       0x18 /home/user/ti-ezsdk_dm816x-evm_5_05_01_04/component-sources/syslink_2_20_00_14/packages/ti/syslink/lib/syslink.a_debug(MultiProcDrv.o)
 .ARM.exidx     0x0005ded4        0x8 /home/user/ti-ezsdk_dm816x-evm_5_05_01_04/component-sources/syslink_2_20_00_14/packages/ti/syslink/lib/syslink.a_debug(TraceDrv.o)
 .ARM.exidx     0x0005dedc        0x8 /home/user/ti-ezsdk_dm816x-evm_5_05_01_04/component-sources/syslink_2_20_00_14/packages/ti/syslink/lib/syslink.a_debug(CacheDrv.o)
 .ARM.exidx     0x0005dee4       0x88 /home/user/ti-ezsdk_dm816x-evm_5_05_01_04/component-sources/syslink_2_20_00_14/packages/ti/syslink/lib/syslink.a_debug(MemoryOS.o)
 .ARM.exidx     0x0005df6c       0x28 /home/user/ti-ezsdk_dm816x-evm_5_05_01_04/component-sources/syslink_2_20_00_14/packages/ti/syslink/lib/syslink.a_debug(OsalDrv.o)
 .ARM.exidx     0x0005df94       0x20 /home/user/ti-ezsdk_dm816x-evm_5_05_01_04/component-sources/syslink_2_20_00_14/packages/ti/syslink/lib/syslink.a_debug(OsalMutex.o)
 .ARM.exidx     0x0005dfb4        0x8 /home/user/ti-ezsdk_dm816x-evm_5_05_01_04/component-sources/syslink_2_20_00_14/packages/ti/syslink/lib/syslink.a_debug(OsalPrint.o)
 .ARM.exidx     0x0005dfbc       0xe8 /home/user/ti-ezsdk_dm816x-evm_5_05_01_04/component-sources/syslink_2_20_00_14/packages/ti/syslink/lib/syslink.a_debug(ProcMgr.o)
 .ARM.exidx     0x0005e0a4       0x18 /home/user/ti-ezsdk_dm816x-evm_5_05_01_04/component-sources/syslink_2_20_00_14/packages/ti/syslink/lib/syslink.a_debug(ProcMgrDrvUsr.o)
 .ARM.exidx     0x0005e0bc       0x48 /home/user/ti-ezsdk_dm816x-evm_5_05_01_04/component-sources/syslink_2_20_00_14/packages/ti/syslink/lib/syslink.a_debug(FrameQ_common.o)
 .ARM.exidx     0x0005e104       0xa8 /home/user/ti-ezsdk_dm816x-evm_5_05_01_04/component-sources/syslink_2_20_00_14/packages/ti/syslink/lib/syslink.a_debug(ListMP.o)
 .ARM.exidx     0x0005e1ac       0xc0 /home/user/ti-ezsdk_dm816x-evm_5_05_01_04/component-sources/syslink_2_20_00_14/packages/ti/syslink/lib/syslink.a_debug(MessageQ.o)
 .ARM.exidx     0x0005e26c       0x18 /home/user/ti-ezsdk_dm816x-evm_5_05_01_04/component-sources/syslink_2_20_00_14/packages/ti/syslink/lib/syslink.a_debug(ListMPDrv.o)
 .ARM.exidx     0x0005e284       0x18 /home/user/ti-ezsdk_dm816x-evm_5_05_01_04/component-sources/syslink_2_20_00_14/packages/ti/syslink/lib/syslink.a_debug(MessageQDrv.o)
 .ARM.exidx     0x0005e29c       0x18 /home/user/CodeSourcery/Sourcery_G++_Lite/bin/../arm-none-linux-gnueabi/libc/usr/lib/libc_nonshared.a(elf-init.oS)
                                 0x10 (size before relaxing)
 .ARM.exidx.init
                0x0005d334       0x10 /home/user/CodeSourcery/Sourcery_G++_Lite/bin/../arm-none-linux-gnueabi/libc/usr/lib/crtn.o
                                  0x8 (size before relaxing)
 .ARM.exidx.fini
                0x0005e2b4       0x10 /home/user/CodeSourcery/Sourcery_G++_Lite/bin/../arm-none-linux-gnueabi/libc/usr/lib/crtn.o
                                  0x8 (size before relaxing)
                0x0005e2c4                __exidx_end = .

.eh_frame_hdr
 *(.eh_frame_hdr)

.eh_frame       0x0005e2c4        0x4
 *(.eh_frame)
 .eh_frame      0x0005e2c4        0x4 /home/user/CodeSourcery/Sourcery_G++_Lite/bin/../lib/gcc/arm-none-linux-gnueabi/4.3.3/crtend.o

.gcc_except_table
 *(.gcc_except_table .gcc_except_table.*)
                0x0005e2c8                . = (ALIGN (0x8000) - ((0x8000 - .) & 0x7fff))
                0x000662c8                . = (0x8000 DATA_SEGMENT_ALIGN 0x1000)

.eh_frame
 *(.eh_frame)

.gcc_except_table
 *(.gcc_except_table .gcc_except_table.*)

.tdata
 *(.tdata .tdata.* .gnu.linkonce.td.*)

.tbss
 *(.tbss .tbss.* .gnu.linkonce.tb.*)
 *(.tcommon)

.preinit_array  0x000662c8        0x0
                0x000662c8                PROVIDE (__preinit_array_start, .)
 *(.preinit_array)
                0x000662c8                PROVIDE (__preinit_array_end, .)

.init_array     0x000662c8        0x4
                0x000662c8                PROVIDE (__init_array_start, .)
 *(SORT(.init_array.*))
 *(.init_array)
 .init_array    0x000662c8        0x4 /home/user/CodeSourcery/Sourcery_G++_Lite/bin/../lib/gcc/arm-none-linux-gnueabi/4.3.3/crtbegin.o
                0x000662cc                PROVIDE (__init_array_end, .)

.fini_array     0x000662cc        0x4
                0x000662cc                PROVIDE (__fini_array_start, .)
 *(.fini_array)
 .fini_array    0x000662cc        0x4 /home/user/CodeSourcery/Sourcery_G++_Lite/bin/../lib/gcc/arm-none-linux-gnueabi/4.3.3/crtbegin.o
 *(SORT(.fini_array.*))
                0x000662d0                PROVIDE (__fini_array_end, .)

.ctors
 *crtbegin.o(.ctors)
 *crtbegin?.o(.ctors)
 *(EXCLUDE_FILE(*crtend?.o *crtend.o) .ctors)
 *(SORT(.ctors.*))
 *(.ctors)

.dtors
 *crtbegin.o(.dtors)
 *crtbegin?.o(.dtors)
 *(EXCLUDE_FILE(*crtend?.o *crtend.o) .dtors)
 *(SORT(.dtors.*))
 *(.dtors)

.jcr            0x000662d0        0x4
 *(.jcr)
 .jcr           0x000662d0        0x0 /home/user/CodeSourcery/Sourcery_G++_Lite/bin/../lib/gcc/arm-none-linux-gnueabi/4.3.3/crtbegin.o
 .jcr           0x000662d0        0x4 /home/user/CodeSourcery/Sourcery_G++_Lite/bin/../lib/gcc/arm-none-linux-gnueabi/4.3.3/crtend.o

.data.rel.ro
 *(.data.rel.ro.local* .gnu.linkonce.d.rel.ro.local.*)
 *(.data.rel.ro* .gnu.linkonce.d.rel.ro.*)

.dynamic        0x000662d4      0x100
 *(.dynamic)
 .dynamic       0x000662d4      0x100 /home/user/CodeSourcery/Sourcery_G++_Lite/bin/../arm-none-linux-gnueabi/libc/usr/lib/crti.o
                0x000662d4                _DYNAMIC
                0x000663d4                . = (. DATA_SEGMENT_RELRO_END 0x0)

.got            0x000663d4       0xc0
 *(.got.plt)
 .got.plt       0x000663d4       0xb4 /home/user/CodeSourcery/Sourcery_G++_Lite/bin/../arm-none-linux-gnueabi/libc/usr/lib/crti.o
                0x000663d4                _GLOBAL_OFFSET_TABLE_
 *(.got)
 .got           0x00066488        0xc /home/user/CodeSourcery/Sourcery_G++_Lite/bin/../arm-none-linux-gnueabi/libc/usr/lib/crti.o

.data           0x00066494       0x48
                0x00066494                __data_start = .
 *(.data .data.* .gnu.linkonce.d.*)
 .data          0x00066494        0x4 /home/user/CodeSourcery/Sourcery_G++_Lite/bin/../arm-none-linux-gnueabi/libc/usr/lib/crt1.o
                0x00066494                data_start
 .data          0x00066498        0x0 /home/user/CodeSourcery/Sourcery_G++_Lite/bin/../arm-none-linux-gnueabi/libc/usr/lib/crti.o
 .data          0x00066498        0x4 /home/user/CodeSourcery/Sourcery_G++_Lite/bin/../lib/gcc/arm-none-linux-gnueabi/4.3.3/crtbegin.o
                0x00066498                __dso_handle
 .data          0x0006649c        0x0 bin/debug/obj/main_host.ov5T
 .data          0x0006649c        0x0 bin/debug/obj/App.ov5T
 .data          0x0006649c        0x4 /home/user/ti-ezsdk_dm816x-evm_5_05_01_04/component-sources/syslink_2_20_00_14/packages/ti/syslink/lib/syslink.a_debug(SharedRegion.o)
                0x0006649c                SharedRegion_module
 .data          0x000664a0        0x0 /home/user/ti-ezsdk_dm816x-evm_5_05_01_04/component-sources/syslink_2_20_00_14/packages/ti/syslink/lib/syslink.a_debug(Notify.o)
 .data          0x000664a0        0x0 /home/user/ti-ezsdk_dm816x-evm_5_05_01_04/component-sources/syslink_2_20_00_14/packages/ti/syslink/lib/syslink.a_debug(Ipc.o)
 .data          0x000664a0        0x0 /home/user/ti-ezsdk_dm816x-evm_5_05_01_04/component-sources/syslink_2_20_00_14/packages/ti/syslink/lib/syslink.a_debug(RingIO.o)
 .data          0x000664a0        0x0 /home/user/ti-ezsdk_dm816x-evm_5_05_01_04/component-sources/syslink_2_20_00_14/packages/ti/syslink/lib/syslink.a_debug(RingIOShm.o)
 .data          0x000664a0        0x4 /home/user/ti-ezsdk_dm816x-evm_5_05_01_04/component-sources/syslink_2_20_00_14/packages/ti/syslink/lib/syslink.a_debug(FrameQ.o)
                0x000664a0                FrameQ_module
 .data          0x000664a4        0x4 /home/user/ti-ezsdk_dm816x-evm_5_05_01_04/component-sources/syslink_2_20_00_14/packages/ti/syslink/lib/syslink.a_debug(FrameQBufMgr.o)
                0x000664a4                FrameQBufMgr_module
 .data          0x000664a8        0x4 /home/user/ti-ezsdk_dm816x-evm_5_05_01_04/component-sources/syslink_2_20_00_14/packages/ti/syslink/lib/syslink.a_debug(ClientNotifyMgr.o)
                0x000664a8                ClientNotifyMgr_module
 .data          0x000664ac        0x0 /home/user/ti-ezsdk_dm816x-evm_5_05_01_04/component-sources/syslink_2_20_00_14/packages/ti/syslink/lib/syslink.a_debug(HeapMemMP.o)
 .data          0x000664ac        0x4 /home/user/ti-ezsdk_dm816x-evm_5_05_01_04/component-sources/syslink_2_20_00_14/packages/ti/syslink/lib/syslink.a_debug(HeapBufMP.o)
                0x000664ac                HeapBufMP_module
 .data          0x000664b0        0x4 /home/user/ti-ezsdk_dm816x-evm_5_05_01_04/component-sources/syslink_2_20_00_14/packages/ti/syslink/lib/syslink.a_debug(GateMP.o)
 .data          0x000664b4        0x0 /home/user/ti-ezsdk_dm816x-evm_5_05_01_04/component-sources/syslink_2_20_00_14/packages/ti/syslink/lib/syslink.a_debug(SharedRegionDrv.o)
 .data          0x000664b4        0x4 /home/user/ti-ezsdk_dm816x-evm_5_05_01_04/component-sources/syslink_2_20_00_14/packages/ti/syslink/lib/syslink.a_debug(NotifyDrvUsr.o)
 .data          0x000664b8        0x0 /home/user/ti-ezsdk_dm816x-evm_5_05_01_04/component-sources/syslink_2_20_00_14/packages/ti/syslink/lib/syslink.a_debug(HeapBufMPDrv.o)
 .data          0x000664b8        0x0 /home/user/ti-ezsdk_dm816x-evm_5_05_01_04/component-sources/syslink_2_20_00_14/packages/ti/syslink/lib/syslink.a_debug(IpcDrv.o)
 .data          0x000664b8        0x0 /home/user/ti-ezsdk_dm816x-evm_5_05_01_04/component-sources/syslink_2_20_00_14/packages/ti/syslink/lib/syslink.a_debug(FrameQDrv.o)
 .data          0x000664b8        0x0 /home/user/ti-ezsdk_dm816x-evm_5_05_01_04/component-sources/syslink_2_20_00_14/packages/ti/syslink/lib/syslink.a_debug(FrameQBufMgrDrv.o)
 .data          0x000664b8        0x0 /home/user/ti-ezsdk_dm816x-evm_5_05_01_04/component-sources/syslink_2_20_00_14/packages/ti/syslink/lib/syslink.a_debug(ClientNotifyMgrDrv.o)
 .data          0x000664b8        0x0 /home/user/ti-ezsdk_dm816x-evm_5_05_01_04/component-sources/syslink_2_20_00_14/packages/ti/syslink/lib/syslink.a_debug(RingIODrv.o)
 .data          0x000664b8        0x0 /home/user/ti-ezsdk_dm816x-evm_5_05_01_04/component-sources/syslink_2_20_00_14/packages/ti/syslink/lib/syslink.a_debug(RingIOShmDrv.o)
 .data          0x000664b8        0x0 /home/user/ti-ezsdk_dm816x-evm_5_05_01_04/component-sources/syslink_2_20_00_14/packages/ti/syslink/lib/syslink.a_debug(HeapMemMPDrv.o)
 .data          0x000664b8        0x0 /home/user/ti-ezsdk_dm816x-evm_5_05_01_04/component-sources/syslink_2_20_00_14/packages/ti/syslink/lib/syslink.a_debug(GateMPDrv.o)
 .data          0x000664b8        0x0 /home/user/ti-ezsdk_dm816x-evm_5_05_01_04/component-sources/syslink_2_20_00_14/packages/ti/syslink/lib/syslink.a_debug(OsalProcess.o)
 .data          0x000664b8        0x0 /home/user/ti-ezsdk_dm816x-evm_5_05_01_04/component-sources/syslink_2_20_00_14/packages/ti/syslink/lib/syslink.a_debug(GateMutex.o)
 .data          0x000664b8        0x0 /home/user/ti-ezsdk_dm816x-evm_5_05_01_04/component-sources/syslink_2_20_00_14/packages/ti/syslink/lib/syslink.a_debug(Memory.o)
 .data          0x000664b8        0x0 /home/user/ti-ezsdk_dm816x-evm_5_05_01_04/component-sources/syslink_2_20_00_14/packages/ti/syslink/lib/syslink.a_debug(List.o)
 .data          0x000664b8        0x0 /home/user/ti-ezsdk_dm816x-evm_5_05_01_04/component-sources/syslink_2_20_00_14/packages/ti/syslink/lib/syslink.a_debug(String.o)
 .data          0x000664b8        0x0 /home/user/ti-ezsdk_dm816x-evm_5_05_01_04/component-sources/syslink_2_20_00_14/packages/ti/syslink/lib/syslink.a_debug(Trace.o)
 .data          0x000664b8        0x4 /home/user/ti-ezsdk_dm816x-evm_5_05_01_04/component-sources/syslink_2_20_00_14/packages/ti/syslink/lib/syslink.a_debug(NameServer.o)
                0x000664b8                NameServer_module
 .data          0x000664bc        0x4 /home/user/ti-ezsdk_dm816x-evm_5_05_01_04/component-sources/syslink_2_20_00_14/packages/ti/syslink/lib/syslink.a_debug(MultiProc.o)
                0x000664bc                MultiProc_module
 .data          0x000664c0        0xc /home/user/ti-ezsdk_dm816x-evm_5_05_01_04/component-sources/syslink_2_20_00_14/packages/ti/syslink/lib/syslink.a_debug(Gate.o)
                0x000664c8                Gate_systemHandle
                0x000664c0                Gate_systemObject
 .data          0x000664cc        0x0 /home/user/ti-ezsdk_dm816x-evm_5_05_01_04/component-sources/syslink_2_20_00_14/packages/ti/syslink/lib/syslink.a_debug(SysLink.o)
 .data          0x000664cc        0x0 /home/user/ti-ezsdk_dm816x-evm_5_05_01_04/component-sources/syslink_2_20_00_14/packages/ti/syslink/lib/syslink.a_debug(Cache.o)
 .data          0x000664cc        0x0 /home/user/ti-ezsdk_dm816x-evm_5_05_01_04/component-sources/syslink_2_20_00_14/packages/ti/syslink/lib/syslink.a_debug(NameServerDrv.o)
 .data          0x000664cc        0x0 /home/user/ti-ezsdk_dm816x-evm_5_05_01_04/component-sources/syslink_2_20_00_14/packages/ti/syslink/lib/syslink.a_debug(MultiProcDrv.o)
 .data          0x000664cc        0x0 /home/user/ti-ezsdk_dm816x-evm_5_05_01_04/component-sources/syslink_2_20_00_14/packages/ti/syslink/lib/syslink.a_debug(TraceDrv.o)
 .data          0x000664cc        0x0 /home/user/ti-ezsdk_dm816x-evm_5_05_01_04/component-sources/syslink_2_20_00_14/packages/ti/syslink/lib/syslink.a_debug(CacheDrv.o)
 .data          0x000664cc        0x0 /home/user/ti-ezsdk_dm816x-evm_5_05_01_04/component-sources/syslink_2_20_00_14/packages/ti/syslink/lib/syslink.a_debug(MemoryOS.o)
 .data          0x000664cc        0x4 /home/user/ti-ezsdk_dm816x-evm_5_05_01_04/component-sources/syslink_2_20_00_14/packages/ti/syslink/lib/syslink.a_debug(OsalDrv.o)
 .data          0x000664d0        0x0 /home/user/ti-ezsdk_dm816x-evm_5_05_01_04/component-sources/syslink_2_20_00_14/packages/ti/syslink/lib/syslink.a_debug(OsalMutex.o)
 .data          0x000664d0        0x0 /home/user/ti-ezsdk_dm816x-evm_5_05_01_04/component-sources/syslink_2_20_00_14/packages/ti/syslink/lib/syslink.a_debug(OsalPrint.o)
 .data          0x000664d0        0x0 /home/user/ti-ezsdk_dm816x-evm_5_05_01_04/component-sources/syslink_2_20_00_14/packages/ti/syslink/lib/syslink.a_debug(ProcMgr.o)
 .data          0x000664d0        0x4 /home/user/ti-ezsdk_dm816x-evm_5_05_01_04/component-sources/syslink_2_20_00_14/packages/ti/syslink/lib/syslink.a_debug(ProcMgrDrvUsr.o)
 .data          0x000664d4        0x0 /home/user/ti-ezsdk_dm816x-evm_5_05_01_04/component-sources/syslink_2_20_00_14/packages/ti/syslink/lib/syslink.a_debug(FrameQ_common.o)
 .data          0x000664d4        0x4 /home/user/ti-ezsdk_dm816x-evm_5_05_01_04/component-sources/syslink_2_20_00_14/packages/ti/syslink/lib/syslink.a_debug(ListMP.o)
                0x000664d4                ListMP_module
 .data          0x000664d8        0x4 /home/user/ti-ezsdk_dm816x-evm_5_05_01_04/component-sources/syslink_2_20_00_14/packages/ti/syslink/lib/syslink.a_debug(MessageQ.o)
                0x000664d8                MessageQ_module
 .data          0x000664dc        0x0 /home/user/ti-ezsdk_dm816x-evm_5_05_01_04/component-sources/syslink_2_20_00_14/packages/ti/syslink/lib/syslink.a_debug(ListMPDrv.o)
 .data          0x000664dc        0x0 /home/user/ti-ezsdk_dm816x-evm_5_05_01_04/component-sources/syslink_2_20_00_14/packages/ti/syslink/lib/syslink.a_debug(MessageQDrv.o)
 .data          0x000664dc        0x0 /home/user/CodeSourcery/Sourcery_G++_Lite/bin/../arm-none-linux-gnueabi/libc/usr/lib/libc_nonshared.a(elf-init.oS)
 .data          0x000664dc        0x0 /home/user/CodeSourcery/Sourcery_G++_Lite/bin/../lib/gcc/arm-none-linux-gnueabi/4.3.3/libgcc.a(_udivsi3.o)
 .data          0x000664dc        0x0 /home/user/CodeSourcery/Sourcery_G++_Lite/bin/../lib/gcc/arm-none-linux-gnueabi/4.3.3/libgcc.a(_dvmd_lnx.o)
 .data          0x000664dc        0x0 /home/user/CodeSourcery/Sourcery_G++_Lite/bin/../lib/gcc/arm-none-linux-gnueabi/4.3.3/crtend.o
 .data          0x000664dc        0x0 /home/user/CodeSourcery/Sourcery_G++_Lite/bin/../arm-none-linux-gnueabi/libc/usr/lib/crtn.o

.data1
 *(.data1)
                0x000664dc                _edata = .
                0x000664dc                PROVIDE (edata, .)
                0x000664dc                __bss_start = .
                0x000664dc                __bss_start__ = .

.bss            0x000664dc    0x2d61c
 *(.dynbss)
 .dynbss        0x00000000        0x0 /home/user/CodeSourcery/Sourcery_G++_Lite/bin/../arm-none-linux-gnueabi/libc/usr/lib/crti.o
 *(.bss .bss.* .gnu.linkonce.b.*)
 .bss           0x000664dc        0x0 /home/user/CodeSourcery/Sourcery_G++_Lite/bin/../arm-none-linux-gnueabi/libc/usr/lib/crt1.o
 .bss           0x000664dc        0x0 /home/user/CodeSourcery/Sourcery_G++_Lite/bin/../arm-none-linux-gnueabi/libc/usr/lib/crti.o
 .bss           0x000664dc        0x1 /home/user/CodeSourcery/Sourcery_G++_Lite/bin/../lib/gcc/arm-none-linux-gnueabi/4.3.3/crtbegin.o
 *fill*         0x000664dd        0x3 00
 .bss           0x000664e0        0x4 bin/debug/obj/main_host.ov5T
 .bss           0x000664e4       0x48 bin/debug/obj/App.ov5T
 .bss           0x0006652c      0x138 /home/user/ti-ezsdk_dm816x-evm_5_05_01_04/component-sources/syslink_2_20_00_14/packages/ti/syslink/lib/syslink.a_debug(SharedRegion.o)
                0x0006652c                SharedRegion_state
 .bss           0x00066664       0x14 /home/user/ti-ezsdk_dm816x-evm_5_05_01_04/component-sources/syslink_2_20_00_14/packages/ti/syslink/lib/syslink.a_debug(Notify.o)
                0x00066664                Notify_state
 .bss           0x00066678       0x34 /home/user/ti-ezsdk_dm816x-evm_5_05_01_04/component-sources/syslink_2_20_00_14/packages/ti/syslink/lib/syslink.a_debug(Ipc.o)
                0x000666a0                SysLinkCfg_sysMemMap
                0x00066678                Ipc_state
                0x000666a8                SysLink_params
 .bss           0x000666ac        0xc /home/user/ti-ezsdk_dm816x-evm_5_05_01_04/component-sources/syslink_2_20_00_14/packages/ti/syslink/lib/syslink.a_debug(RingIO.o)
                0x000666ac                RingIO_state
 .bss           0x000666b8        0x8 /home/user/ti-ezsdk_dm816x-evm_5_05_01_04/component-sources/syslink_2_20_00_14/packages/ti/syslink/lib/syslink.a_debug(RingIOShm.o)
                0x000666b8                RingIOShm_state
 .bss           0x000666c0       0x20 /home/user/ti-ezsdk_dm816x-evm_5_05_01_04/component-sources/syslink_2_20_00_14/packages/ti/syslink/lib/syslink.a_debug(FrameQ.o)
                0x000666c0                FrameQ_module_obj
 .bss           0x000666e0       0x20 /home/user/ti-ezsdk_dm816x-evm_5_05_01_04/component-sources/syslink_2_20_00_14/packages/ti/syslink/lib/syslink.a_debug(FrameQBufMgr.o)
                0x000666e0                FrameQBufMgr_module_obj
 .bss           0x00066700    0x2d024 /home/user/ti-ezsdk_dm816x-evm_5_05_01_04/component-sources/syslink_2_20_00_14/packages/ti/syslink/lib/syslink.a_debug(ClientNotifyMgr.o)
                0x00066700                ClientNotifyMgr_module_obj
 .bss           0x00093724        0x4 /home/user/ti-ezsdk_dm816x-evm_5_05_01_04/component-sources/syslink_2_20_00_14/packages/ti/syslink/lib/syslink.a_debug(HeapMemMP.o)
                0x00093724                HeapMemMP_state
 .bss           0x00093728        0x4 /home/user/ti-ezsdk_dm816x-evm_5_05_01_04/component-sources/syslink_2_20_00_14/packages/ti/syslink/lib/syslink.a_debug(HeapBufMP.o)
                0x00093728                HeapBufMP_state
 .bss           0x0009372c       0x1c /home/user/ti-ezsdk_dm816x-evm_5_05_01_04/component-sources/syslink_2_20_00_14/packages/ti/syslink/lib/syslink.a_debug(GateMP.o)
 .bss           0x00093748        0x8 /home/user/ti-ezsdk_dm816x-evm_5_05_01_04/component-sources/syslink_2_20_00_14/packages/ti/syslink/lib/syslink.a_debug(SharedRegionDrv.o)
 .bss           0x00093750        0xc /home/user/ti-ezsdk_dm816x-evm_5_05_01_04/component-sources/syslink_2_20_00_14/packages/ti/syslink/lib/syslink.a_debug(NotifyDrvUsr.o)
 .bss           0x0009375c        0x8 /home/user/ti-ezsdk_dm816x-evm_5_05_01_04/component-sources/syslink_2_20_00_14/packages/ti/syslink/lib/syslink.a_debug(HeapBufMPDrv.o)
 .bss           0x00093764        0x8 /home/user/ti-ezsdk_dm816x-evm_5_05_01_04/component-sources/syslink_2_20_00_14/packages/ti/syslink/lib/syslink.a_debug(IpcDrv.o)
 .bss           0x0009376c        0x8 /home/user/ti-ezsdk_dm816x-evm_5_05_01_04/component-sources/syslink_2_20_00_14/packages/ti/syslink/lib/syslink.a_debug(FrameQDrv.o)
 .bss           0x00093774        0x8 /home/user/ti-ezsdk_dm816x-evm_5_05_01_04/component-sources/syslink_2_20_00_14/packages/ti/syslink/lib/syslink.a_debug(FrameQBufMgrDrv.o)
 .bss           0x0009377c        0x8 /home/user/ti-ezsdk_dm816x-evm_5_05_01_04/component-sources/syslink_2_20_00_14/packages/ti/syslink/lib/syslink.a_debug(ClientNotifyMgrDrv.o)
 .bss           0x00093784        0x8 /home/user/ti-ezsdk_dm816x-evm_5_05_01_04/component-sources/syslink_2_20_00_14/packages/ti/syslink/lib/syslink.a_debug(RingIODrv.o)
 .bss           0x0009378c        0x8 /home/user/ti-ezsdk_dm816x-evm_5_05_01_04/component-sources/syslink_2_20_00_14/packages/ti/syslink/lib/syslink.a_debug(RingIOShmDrv.o)
 .bss           0x00093794        0x8 /home/user/ti-ezsdk_dm816x-evm_5_05_01_04/component-sources/syslink_2_20_00_14/packages/ti/syslink/lib/syslink.a_debug(HeapMemMPDrv.o)
 .bss           0x0009379c        0x8 /home/user/ti-ezsdk_dm816x-evm_5_05_01_04/component-sources/syslink_2_20_00_14/packages/ti/syslink/lib/syslink.a_debug(GateMPDrv.o)
 .bss           0x000937a4        0x0 /home/user/ti-ezsdk_dm816x-evm_5_05_01_04/component-sources/syslink_2_20_00_14/packages/ti/syslink/lib/syslink.a_debug(OsalProcess.o)
 .bss           0x000937a4        0x4 /home/user/ti-ezsdk_dm816x-evm_5_05_01_04/component-sources/syslink_2_20_00_14/packages/ti/syslink/lib/syslink.a_debug(GateMutex.o)
 .bss           0x000937a8        0x0 /home/user/ti-ezsdk_dm816x-evm_5_05_01_04/component-sources/syslink_2_20_00_14/packages/ti/syslink/lib/syslink.a_debug(Memory.o)
 .bss           0x000937a8        0x0 /home/user/ti-ezsdk_dm816x-evm_5_05_01_04/component-sources/syslink_2_20_00_14/packages/ti/syslink/lib/syslink.a_debug(List.o)
 .bss           0x000937a8        0x0 /home/user/ti-ezsdk_dm816x-evm_5_05_01_04/component-sources/syslink_2_20_00_14/packages/ti/syslink/lib/syslink.a_debug(String.o)
 .bss           0x000937a8        0x4 /home/user/ti-ezsdk_dm816x-evm_5_05_01_04/component-sources/syslink_2_20_00_14/packages/ti/syslink/lib/syslink.a_debug(Trace.o)
                0x000937a8                curTrace
 .bss           0x000937ac        0xc /home/user/ti-ezsdk_dm816x-evm_5_05_01_04/component-sources/syslink_2_20_00_14/packages/ti/syslink/lib/syslink.a_debug(NameServer.o)
                0x000937ac                NameServer_state
 .bss           0x000937b8      0x298 /home/user/ti-ezsdk_dm816x-evm_5_05_01_04/component-sources/syslink_2_20_00_14/packages/ti/syslink/lib/syslink.a_debug(MultiProc.o)
                0x000937b8                MultiProc_state
 .bss           0x00093a50       0x18 /home/user/ti-ezsdk_dm816x-evm_5_05_01_04/component-sources/syslink_2_20_00_14/packages/ti/syslink/lib/syslink.a_debug(Gate.o)
                0x00093a50                staticMutex
 .bss           0x00093a68        0x0 /home/user/ti-ezsdk_dm816x-evm_5_05_01_04/component-sources/syslink_2_20_00_14/packages/ti/syslink/lib/syslink.a_debug(SysLink.o)
 .bss           0x00093a68        0x0 /home/user/ti-ezsdk_dm816x-evm_5_05_01_04/component-sources/syslink_2_20_00_14/packages/ti/syslink/lib/syslink.a_debug(Cache.o)
 .bss           0x00093a68        0x8 /home/user/ti-ezsdk_dm816x-evm_5_05_01_04/component-sources/syslink_2_20_00_14/packages/ti/syslink/lib/syslink.a_debug(NameServerDrv.o)
 .bss           0x00093a70        0x8 /home/user/ti-ezsdk_dm816x-evm_5_05_01_04/component-sources/syslink_2_20_00_14/packages/ti/syslink/lib/syslink.a_debug(MultiProcDrv.o)
 .bss           0x00093a78        0x0 /home/user/ti-ezsdk_dm816x-evm_5_05_01_04/component-sources/syslink_2_20_00_14/packages/ti/syslink/lib/syslink.a_debug(TraceDrv.o)
 .bss           0x00093a78        0x0 /home/user/ti-ezsdk_dm816x-evm_5_05_01_04/component-sources/syslink_2_20_00_14/packages/ti/syslink/lib/syslink.a_debug(CacheDrv.o)
 .bss           0x00093a78       0x18 /home/user/ti-ezsdk_dm816x-evm_5_05_01_04/component-sources/syslink_2_20_00_14/packages/ti/syslink/lib/syslink.a_debug(MemoryOS.o)
 .bss           0x00093a90        0x4 /home/user/ti-ezsdk_dm816x-evm_5_05_01_04/component-sources/syslink_2_20_00_14/packages/ti/syslink/lib/syslink.a_debug(OsalDrv.o)
 .bss           0x00093a94        0x0 /home/user/ti-ezsdk_dm816x-evm_5_05_01_04/component-sources/syslink_2_20_00_14/packages/ti/syslink/lib/syslink.a_debug(OsalMutex.o)
 .bss           0x00093a94        0x0 /home/user/ti-ezsdk_dm816x-evm_5_05_01_04/component-sources/syslink_2_20_00_14/packages/ti/syslink/lib/syslink.a_debug(OsalPrint.o)
 .bss           0x00093a94       0x2c /home/user/ti-ezsdk_dm816x-evm_5_05_01_04/component-sources/syslink_2_20_00_14/packages/ti/syslink/lib/syslink.a_debug(ProcMgr.o)
                0x00093a94                ProcMgr_state
 .bss           0x00093ac0        0x4 /home/user/ti-ezsdk_dm816x-evm_5_05_01_04/component-sources/syslink_2_20_00_14/packages/ti/syslink/lib/syslink.a_debug(ProcMgrDrvUsr.o)
 .bss           0x00093ac4        0x0 /home/user/ti-ezsdk_dm816x-evm_5_05_01_04/component-sources/syslink_2_20_00_14/packages/ti/syslink/lib/syslink.a_debug(FrameQ_common.o)
 .bss           0x00093ac4        0x4 /home/user/ti-ezsdk_dm816x-evm_5_05_01_04/component-sources/syslink_2_20_00_14/packages/ti/syslink/lib/syslink.a_debug(ListMP.o)
                0x00093ac4                ListMP_state
 .bss           0x00093ac8        0x4 /home/user/ti-ezsdk_dm816x-evm_5_05_01_04/component-sources/syslink_2_20_00_14/packages/ti/syslink/lib/syslink.a_debug(MessageQ.o)
                0x00093ac8                MessageQ_state
 .bss           0x00093acc        0x8 /home/user/ti-ezsdk_dm816x-evm_5_05_01_04/component-sources/syslink_2_20_00_14/packages/ti/syslink/lib/syslink.a_debug(ListMPDrv.o)
 .bss           0x00093ad4        0x8 /home/user/ti-ezsdk_dm816x-evm_5_05_01_04/component-sources/syslink_2_20_00_14/packages/ti/syslink/lib/syslink.a_debug(MessageQDrv.o)
 .bss           0x00093adc        0x0 /home/user/CodeSourcery/Sourcery_G++_Lite/bin/../arm-none-linux-gnueabi/libc/usr/lib/libc_nonshared.a(elf-init.oS)
 .bss           0x00093adc        0x0 /home/user/CodeSourcery/Sourcery_G++_Lite/bin/../lib/gcc/arm-none-linux-gnueabi/4.3.3/libgcc.a(_udivsi3.o)
 .bss           0x00093adc        0x0 /home/user/CodeSourcery/Sourcery_G++_Lite/bin/../lib/gcc/arm-none-linux-gnueabi/4.3.3/libgcc.a(_dvmd_lnx.o)
 .bss           0x00093adc        0x0 /home/user/CodeSourcery/Sourcery_G++_Lite/bin/../lib/gcc/arm-none-linux-gnueabi/4.3.3/crtend.o
 .bss           0x00093adc        0x0 /home/user/CodeSourcery/Sourcery_G++_Lite/bin/../arm-none-linux-gnueabi/libc/usr/lib/crtn.o
 *(COMMON)
 COMMON         0x00093adc        0x6 bin/debug/obj/App.ov5T
                0x00093adc                testin
                0x00093ae0                Buffersize
 *fill*         0x00093ae2        0x2 00
 COMMON         0x00093ae4        0x4 /home/user/ti-ezsdk_dm816x-evm_5_05_01_04/component-sources/syslink_2_20_00_14/packages/ti/syslink/lib/syslink.a_debug(NameServer.o)
                0x00093ae4                NameServer_Object
 COMMON         0x00093ae8       0x10 /home/user/ti-ezsdk_dm816x-evm_5_05_01_04/component-sources/syslink_2_20_00_14/packages/ti/syslink/lib/syslink.a_debug(MemoryOS.o)
                0x00093ae8                MemoryOS_state
                0x00093af8                . = ALIGN ((. != 0x0)?0x4:0x1)
                0x00093af8                _bss_end__ = .
                0x00093af8                __bss_end__ = .
                0x00093af8                . = ALIGN (0x4)
                0x00093af8                . = ALIGN (0x4)
                0x00093af8                __end__ = .
                0x00093af8                _end = .
                0x00093af8                PROVIDE (end, .)
                0x00093af8                . = DATA_SEGMENT_END (.)

.stab
 *(.stab)

.stabstr
 *(.stabstr)

.stab.excl
 *(.stab.excl)

.stab.exclstr
 *(.stab.exclstr)

.stab.index
 *(.stab.index)

.stab.indexstr
 *(.stab.indexstr)

.ARM.attributes
                0x00000000       0x2d
 .ARM.attributes
                0x00000000       0x2d /home/user/CodeSourcery/Sourcery_G++_Lite/bin/../arm-none-linux-gnueabi/libc/usr/lib/crt1.o
 .ARM.attributes
                0x0000002d       0x31 /home/user/CodeSourcery/Sourcery_G++_Lite/bin/../arm-none-linux-gnueabi/libc/usr/lib/crti.o
 .ARM.attributes
                0x0000005e       0x31 /home/user/CodeSourcery/Sourcery_G++_Lite/bin/../lib/gcc/arm-none-linux-gnueabi/4.3.3/crtbegin.o
 .ARM.attributes
                0x0000008f       0x2a bin/debug/obj/main_host.ov5T
 .ARM.attributes
                0x000000b9       0x2a bin/debug/obj/App.ov5T
 .ARM.attributes
                0x000000e3       0x31 /home/user/ti-ezsdk_dm816x-evm_5_05_01_04/component-sources/syslink_2_20_00_14/packages/ti/syslink/lib/syslink.a_debug(SharedRegion.o)
 .ARM.attributes
                0x00000114       0x31 /home/user/ti-ezsdk_dm816x-evm_5_05_01_04/component-sources/syslink_2_20_00_14/packages/ti/syslink/lib/syslink.a_debug(Notify.o)
 .ARM.attributes
                0x00000145       0x31 /home/user/ti-ezsdk_dm816x-evm_5_05_01_04/component-sources/syslink_2_20_00_14/packages/ti/syslink/lib/syslink.a_debug(Ipc.o)
 .ARM.attributes
                0x00000176       0x31 /home/user/ti-ezsdk_dm816x-evm_5_05_01_04/component-sources/syslink_2_20_00_14/packages/ti/syslink/lib/syslink.a_debug(RingIO.o)
 .ARM.attributes
                0x000001a7       0x31 /home/user/ti-ezsdk_dm816x-evm_5_05_01_04/component-sources/syslink_2_20_00_14/packages/ti/syslink/lib/syslink.a_debug(RingIOShm.o)
 .ARM.attributes
                0x000001d8       0x31 /home/user/ti-ezsdk_dm816x-evm_5_05_01_04/component-sources/syslink_2_20_00_14/packages/ti/syslink/lib/syslink.a_debug(FrameQ.o)
 .ARM.attributes
                0x00000209       0x31 /home/user/ti-ezsdk_dm816x-evm_5_05_01_04/component-sources/syslink_2_20_00_14/packages/ti/syslink/lib/syslink.a_debug(FrameQBufMgr.o)
 .ARM.attributes
                0x0000023a       0x31 /home/user/ti-ezsdk_dm816x-evm_5_05_01_04/component-sources/syslink_2_20_00_14/packages/ti/syslink/lib/syslink.a_debug(ClientNotifyMgr.o)
 .ARM.attributes
                0x0000026b       0x31 /home/user/ti-ezsdk_dm816x-evm_5_05_01_04/component-sources/syslink_2_20_00_14/packages/ti/syslink/lib/syslink.a_debug(HeapMemMP.o)
 .ARM.attributes
                0x0000029c       0x31 /home/user/ti-ezsdk_dm816x-evm_5_05_01_04/component-sources/syslink_2_20_00_14/packages/ti/syslink/lib/syslink.a_debug(HeapBufMP.o)
 .ARM.attributes
                0x000002cd       0x31 /home/user/ti-ezsdk_dm816x-evm_5_05_01_04/component-sources/syslink_2_20_00_14/packages/ti/syslink/lib/syslink.a_debug(GateMP.o)
 .ARM.attributes
                0x000002fe       0x31 /home/user/ti-ezsdk_dm816x-evm_5_05_01_04/component-sources/syslink_2_20_00_14/packages/ti/syslink/lib/syslink.a_debug(SharedRegionDrv.o)
 .ARM.attributes
                0x0000032f       0x31 /home/user/ti-ezsdk_dm816x-evm_5_05_01_04/component-sources/syslink_2_20_00_14/packages/ti/syslink/lib/syslink.a_debug(NotifyDrvUsr.o)
 .ARM.attributes
                0x00000360       0x31 /home/user/ti-ezsdk_dm816x-evm_5_05_01_04/component-sources/syslink_2_20_00_14/packages/ti/syslink/lib/syslink.a_debug(HeapBufMPDrv.o)
 .ARM.attributes
                0x00000391       0x31 /home/user/ti-ezsdk_dm816x-evm_5_05_01_04/component-sources/syslink_2_20_00_14/packages/ti/syslink/lib/syslink.a_debug(IpcDrv.o)
 .ARM.attributes
                0x000003c2       0x31 /home/user/ti-ezsdk_dm816x-evm_5_05_01_04/component-sources/syslink_2_20_00_14/packages/ti/syslink/lib/syslink.a_debug(FrameQDrv.o)
 .ARM.attributes
                0x000003f3       0x31 /home/user/ti-ezsdk_dm816x-evm_5_05_01_04/component-sources/syslink_2_20_00_14/packages/ti/syslink/lib/syslink.a_debug(FrameQBufMgrDrv.o)
 .ARM.attributes
                0x00000424       0x31 /home/user/ti-ezsdk_dm816x-evm_5_05_01_04/component-sources/syslink_2_20_00_14/packages/ti/syslink/lib/syslink.a_debug(ClientNotifyMgrDrv.o)
 .ARM.attributes
                0x00000455       0x31 /home/user/ti-ezsdk_dm816x-evm_5_05_01_04/component-sources/syslink_2_20_00_14/packages/ti/syslink/lib/syslink.a_debug(RingIODrv.o)
 .ARM.attributes
                0x00000486       0x31 /home/user/ti-ezsdk_dm816x-evm_5_05_01_04/component-sources/syslink_2_20_00_14/packages/ti/syslink/lib/syslink.a_debug(RingIOShmDrv.o)
 .ARM.attributes
                0x000004b7       0x31 /home/user/ti-ezsdk_dm816x-evm_5_05_01_04/component-sources/syslink_2_20_00_14/packages/ti/syslink/lib/syslink.a_debug(HeapMemMPDrv.o)
 .ARM.attributes
                0x000004e8       0x31 /home/user/ti-ezsdk_dm816x-evm_5_05_01_04/component-sources/syslink_2_20_00_14/packages/ti/syslink/lib/syslink.a_debug(GateMPDrv.o)
 .ARM.attributes
                0x00000519       0x31 /home/user/ti-ezsdk_dm816x-evm_5_05_01_04/component-sources/syslink_2_20_00_14/packages/ti/syslink/lib/syslink.a_debug(OsalProcess.o)
 .ARM.attributes
                0x0000054a       0x31 /home/user/ti-ezsdk_dm816x-evm_5_05_01_04/component-sources/syslink_2_20_00_14/packages/ti/syslink/lib/syslink.a_debug(GateMutex.o)
 .ARM.attributes
                0x0000057b       0x31 /home/user/ti-ezsdk_dm816x-evm_5_05_01_04/component-sources/syslink_2_20_00_14/packages/ti/syslink/lib/syslink.a_debug(Memory.o)
 .ARM.attributes
                0x000005ac       0x31 /home/user/ti-ezsdk_dm816x-evm_5_05_01_04/component-sources/syslink_2_20_00_14/packages/ti/syslink/lib/syslink.a_debug(List.o)
 .ARM.attributes
                0x000005dd       0x31 /home/user/ti-ezsdk_dm816x-evm_5_05_01_04/component-sources/syslink_2_20_00_14/packages/ti/syslink/lib/syslink.a_debug(String.o)
 .ARM.attributes
                0x0000060e       0x31 /home/user/ti-ezsdk_dm816x-evm_5_05_01_04/component-sources/syslink_2_20_00_14/packages/ti/syslink/lib/syslink.a_debug(Trace.o)
 .ARM.attributes
                0x0000063f       0x31 /home/user/ti-ezsdk_dm816x-evm_5_05_01_04/component-sources/syslink_2_20_00_14/packages/ti/syslink/lib/syslink.a_debug(NameServer.o)
 .ARM.attributes
                0x00000670       0x31 /home/user/ti-ezsdk_dm816x-evm_5_05_01_04/component-sources/syslink_2_20_00_14/packages/ti/syslink/lib/syslink.a_debug(MultiProc.o)
 .ARM.attributes
                0x000006a1       0x31 /home/user/ti-ezsdk_dm816x-evm_5_05_01_04/component-sources/syslink_2_20_00_14/packages/ti/syslink/lib/syslink.a_debug(Gate.o)
 .ARM.attributes
                0x000006d2       0x31 /home/user/ti-ezsdk_dm816x-evm_5_05_01_04/component-sources/syslink_2_20_00_14/packages/ti/syslink/lib/syslink.a_debug(SysLink.o)
 .ARM.attributes
                0x00000703       0x31 /home/user/ti-ezsdk_dm816x-evm_5_05_01_04/component-sources/syslink_2_20_00_14/packages/ti/syslink/lib/syslink.a_debug(Cache.o)
 .ARM.attributes
                0x00000734       0x31 /home/user/ti-ezsdk_dm816x-evm_5_05_01_04/component-sources/syslink_2_20_00_14/packages/ti/syslink/lib/syslink.a_debug(NameServerDrv.o)
 .ARM.attributes
                0x00000765       0x31 /home/user/ti-ezsdk_dm816x-evm_5_05_01_04/component-sources/syslink_2_20_00_14/packages/ti/syslink/lib/syslink.a_debug(MultiProcDrv.o)
 .ARM.attributes
                0x00000796       0x31 /home/user/ti-ezsdk_dm816x-evm_5_05_01_04/component-sources/syslink_2_20_00_14/packages/ti/syslink/lib/syslink.a_debug(TraceDrv.o)
 .ARM.attributes
                0x000007c7       0x31 /home/user/ti-ezsdk_dm816x-evm_5_05_01_04/component-sources/syslink_2_20_00_14/packages/ti/syslink/lib/syslink.a_debug(CacheDrv.o)
 .ARM.attributes
                0x000007f8       0x31 /home/user/ti-ezsdk_dm816x-evm_5_05_01_04/component-sources/syslink_2_20_00_14/packages/ti/syslink/lib/syslink.a_debug(MemoryOS.o)
 .ARM.attributes
                0x00000829       0x31 /home/user/ti-ezsdk_dm816x-evm_5_05_01_04/component-sources/syslink_2_20_00_14/packages/ti/syslink/lib/syslink.a_debug(OsalDrv.o)
 .ARM.attributes
                0x0000085a       0x31 /home/user/ti-ezsdk_dm816x-evm_5_05_01_04/component-sources/syslink_2_20_00_14/packages/ti/syslink/lib/syslink.a_debug(OsalMutex.o)
 .ARM.attributes
                0x0000088b       0x31 /home/user/ti-ezsdk_dm816x-evm_5_05_01_04/component-sources/syslink_2_20_00_14/packages/ti/syslink/lib/syslink.a_debug(OsalPrint.o)
 .ARM.attributes
                0x000008bc       0x31 /home/user/ti-ezsdk_dm816x-evm_5_05_01_04/component-sources/syslink_2_20_00_14/packages/ti/syslink/lib/syslink.a_debug(ProcMgr.o)
 .ARM.attributes
                0x000008ed       0x31 /home/user/ti-ezsdk_dm816x-evm_5_05_01_04/component-sources/syslink_2_20_00_14/packages/ti/syslink/lib/syslink.a_debug(ProcMgrDrvUsr.o)
 .ARM.attributes
                0x0000091e       0x31 /home/user/ti-ezsdk_dm816x-evm_5_05_01_04/component-sources/syslink_2_20_00_14/packages/ti/syslink/lib/syslink.a_debug(FrameQ_common.o)
 .ARM.attributes
                0x0000094f       0x31 /home/user/ti-ezsdk_dm816x-evm_5_05_01_04/component-sources/syslink_2_20_00_14/packages/ti/syslink/lib/syslink.a_debug(ListMP.o)
 .ARM.attributes
                0x00000980       0x31 /home/user/ti-ezsdk_dm816x-evm_5_05_01_04/component-sources/syslink_2_20_00_14/packages/ti/syslink/lib/syslink.a_debug(MessageQ.o)
 .ARM.attributes
                0x000009b1       0x31 /home/user/ti-ezsdk_dm816x-evm_5_05_01_04/component-sources/syslink_2_20_00_14/packages/ti/syslink/lib/syslink.a_debug(ListMPDrv.o)
 .ARM.attributes
                0x000009e2       0x31 /home/user/ti-ezsdk_dm816x-evm_5_05_01_04/component-sources/syslink_2_20_00_14/packages/ti/syslink/lib/syslink.a_debug(MessageQDrv.o)
 .ARM.attributes
                0x00000a13       0x31 /home/user/CodeSourcery/Sourcery_G++_Lite/bin/../arm-none-linux-gnueabi/libc/usr/lib/libc_nonshared.a(elf-init.oS)
 .ARM.attributes
                0x00000a44       0x16 /home/user/CodeSourcery/Sourcery_G++_Lite/bin/../lib/gcc/arm-none-linux-gnueabi/4.3.3/libgcc.a(_udivsi3.o)
 .ARM.attributes
                0x00000a5a       0x14 /home/user/CodeSourcery/Sourcery_G++_Lite/bin/../lib/gcc/arm-none-linux-gnueabi/4.3.3/libgcc.a(_dvmd_lnx.o)
 .ARM.attributes
                0x00000a6e       0x31 /home/user/CodeSourcery/Sourcery_G++_Lite/bin/../lib/gcc/arm-none-linux-gnueabi/4.3.3/crtend.o
 .ARM.attributes
                0x00000a9f       0x31 /home/user/CodeSourcery/Sourcery_G++_Lite/bin/../arm-none-linux-gnueabi/libc/usr/lib/crtn.o

.comment        0x00000000      0x866
 *(.comment)
 .comment       0x00000000       0x2b bin/debug/obj/main_host.ov5T
 .comment       0x0000002b       0x2b bin/debug/obj/App.ov5T
 .comment       0x00000056       0x2b /home/user/ti-ezsdk_dm816x-evm_5_05_01_04/component-sources/syslink_2_20_00_14/packages/ti/syslink/lib/syslink.a_debug(SharedRegion.o)
 .comment       0x00000081       0x2b /home/user/ti-ezsdk_dm816x-evm_5_05_01_04/component-sources/syslink_2_20_00_14/packages/ti/syslink/lib/syslink.a_debug(Notify.o)
 .comment       0x000000ac       0x2b /home/user/ti-ezsdk_dm816x-evm_5_05_01_04/component-sources/syslink_2_20_00_14/packages/ti/syslink/lib/syslink.a_debug(Ipc.o)
 .comment       0x000000d7       0x2b /home/user/ti-ezsdk_dm816x-evm_5_05_01_04/component-sources/syslink_2_20_00_14/packages/ti/syslink/lib/syslink.a_debug(RingIO.o)
 .comment       0x00000102       0x2b /home/user/ti-ezsdk_dm816x-evm_5_05_01_04/component-sources/syslink_2_20_00_14/packages/ti/syslink/lib/syslink.a_debug(RingIOShm.o)
 .comment       0x0000012d       0x2b /home/user/ti-ezsdk_dm816x-evm_5_05_01_04/component-sources/syslink_2_20_00_14/packages/ti/syslink/lib/syslink.a_debug(FrameQ.o)
 .comment       0x00000158       0x2b /home/user/ti-ezsdk_dm816x-evm_5_05_01_04/component-sources/syslink_2_20_00_14/packages/ti/syslink/lib/syslink.a_debug(FrameQBufMgr.o)
 .comment       0x00000183       0x2b /home/user/ti-ezsdk_dm816x-evm_5_05_01_04/component-sources/syslink_2_20_00_14/packages/ti/syslink/lib/syslink.a_debug(ClientNotifyMgr.o)
 .comment       0x000001ae       0x2b /home/user/ti-ezsdk_dm816x-evm_5_05_01_04/component-sources/syslink_2_20_00_14/packages/ti/syslink/lib/syslink.a_debug(HeapMemMP.o)
 .comment       0x000001d9       0x2b /home/user/ti-ezsdk_dm816x-evm_5_05_01_04/component-sources/syslink_2_20_00_14/packages/ti/syslink/lib/syslink.a_debug(HeapBufMP.o)
 .comment       0x00000204       0x2b /home/user/ti-ezsdk_dm816x-evm_5_05_01_04/component-sources/syslink_2_20_00_14/packages/ti/syslink/lib/syslink.a_debug(GateMP.o)
 .comment       0x0000022f       0x2b /home/user/ti-ezsdk_dm816x-evm_5_05_01_04/component-sources/syslink_2_20_00_14/packages/ti/syslink/lib/syslink.a_debug(SharedRegionDrv.o)
 .comment       0x0000025a       0x2b /home/user/ti-ezsdk_dm816x-evm_5_05_01_04/component-sources/syslink_2_20_00_14/packages/ti/syslink/lib/syslink.a_debug(NotifyDrvUsr.o)
 .comment       0x00000285       0x2b /home/user/ti-ezsdk_dm816x-evm_5_05_01_04/component-sources/syslink_2_20_00_14/packages/ti/syslink/lib/syslink.a_debug(HeapBufMPDrv.o)
 .comment       0x000002b0       0x2b /home/user/ti-ezsdk_dm816x-evm_5_05_01_04/component-sources/syslink_2_20_00_14/packages/ti/syslink/lib/syslink.a_debug(IpcDrv.o)
 .comment       0x000002db       0x2b /home/user/ti-ezsdk_dm816x-evm_5_05_01_04/component-sources/syslink_2_20_00_14/packages/ti/syslink/lib/syslink.a_debug(FrameQDrv.o)
 .comment       0x00000306       0x2b /home/user/ti-ezsdk_dm816x-evm_5_05_01_04/component-sources/syslink_2_20_00_14/packages/ti/syslink/lib/syslink.a_debug(FrameQBufMgrDrv.o)
 .comment       0x00000331       0x2b /home/user/ti-ezsdk_dm816x-evm_5_05_01_04/component-sources/syslink_2_20_00_14/packages/ti/syslink/lib/syslink.a_debug(ClientNotifyMgrDrv.o)
 .comment       0x0000035c       0x2b /home/user/ti-ezsdk_dm816x-evm_5_05_01_04/component-sources/syslink_2_20_00_14/packages/ti/syslink/lib/syslink.a_debug(RingIODrv.o)
 .comment       0x00000387       0x2b /home/user/ti-ezsdk_dm816x-evm_5_05_01_04/component-sources/syslink_2_20_00_14/packages/ti/syslink/lib/syslink.a_debug(RingIOShmDrv.o)
 .comment       0x000003b2       0x2b /home/user/ti-ezsdk_dm816x-evm_5_05_01_04/component-sources/syslink_2_20_00_14/packages/ti/syslink/lib/syslink.a_debug(HeapMemMPDrv.o)
 .comment       0x000003dd       0x2b /home/user/ti-ezsdk_dm816x-evm_5_05_01_04/component-sources/syslink_2_20_00_14/packages/ti/syslink/lib/syslink.a_debug(GateMPDrv.o)
 .comment       0x00000408       0x2b /home/user/ti-ezsdk_dm816x-evm_5_05_01_04/component-sources/syslink_2_20_00_14/packages/ti/syslink/lib/syslink.a_debug(OsalProcess.o)
 .comment       0x00000433       0x2b /home/user/ti-ezsdk_dm816x-evm_5_05_01_04/component-sources/syslink_2_20_00_14/packages/ti/syslink/lib/syslink.a_debug(GateMutex.o)
 .comment       0x0000045e       0x2b /home/user/ti-ezsdk_dm816x-evm_5_05_01_04/component-sources/syslink_2_20_00_14/packages/ti/syslink/lib/syslink.a_debug(Memory.o)
 .comment       0x00000489       0x2b /home/user/ti-ezsdk_dm816x-evm_5_05_01_04/component-sources/syslink_2_20_00_14/packages/ti/syslink/lib/syslink.a_debug(List.o)
 .comment       0x000004b4       0x2b /home/user/ti-ezsdk_dm816x-evm_5_05_01_04/component-sources/syslink_2_20_00_14/packages/ti/syslink/lib/syslink.a_debug(String.o)
 .comment       0x000004df       0x2b /home/user/ti-ezsdk_dm816x-evm_5_05_01_04/component-sources/syslink_2_20_00_14/packages/ti/syslink/lib/syslink.a_debug(Trace.o)
 .comment       0x0000050a       0x2b /home/user/ti-ezsdk_dm816x-evm_5_05_01_04/component-sources/syslink_2_20_00_14/packages/ti/syslink/lib/syslink.a_debug(NameServer.o)
 .comment       0x00000535       0x2b /home/user/ti-ezsdk_dm816x-evm_5_05_01_04/component-sources/syslink_2_20_00_14/packages/ti/syslink/lib/syslink.a_debug(MultiProc.o)
 .comment       0x00000560       0x2b /home/user/ti-ezsdk_dm816x-evm_5_05_01_04/component-sources/syslink_2_20_00_14/packages/ti/syslink/lib/syslink.a_debug(Gate.o)
 .comment       0x0000058b       0x2b /home/user/ti-ezsdk_dm816x-evm_5_05_01_04/component-sources/syslink_2_20_00_14/packages/ti/syslink/lib/syslink.a_debug(SysLink.o)
 .comment       0x000005b6       0x2b /home/user/ti-ezsdk_dm816x-evm_5_05_01_04/component-sources/syslink_2_20_00_14/packages/ti/syslink/lib/syslink.a_debug(Cache.o)
 .comment       0x000005e1       0x2b /home/user/ti-ezsdk_dm816x-evm_5_05_01_04/component-sources/syslink_2_20_00_14/packages/ti/syslink/lib/syslink.a_debug(NameServerDrv.o)
 .comment       0x0000060c       0x2b /home/user/ti-ezsdk_dm816x-evm_5_05_01_04/component-sources/syslink_2_20_00_14/packages/ti/syslink/lib/syslink.a_debug(MultiProcDrv.o)
 .comment       0x00000637       0x2b /home/user/ti-ezsdk_dm816x-evm_5_05_01_04/component-sources/syslink_2_20_00_14/packages/ti/syslink/lib/syslink.a_debug(TraceDrv.o)
 .comment       0x00000662       0x2b /home/user/ti-ezsdk_dm816x-evm_5_05_01_04/component-sources/syslink_2_20_00_14/packages/ti/syslink/lib/syslink.a_debug(CacheDrv.o)
 .comment       0x0000068d       0x2b /home/user/ti-ezsdk_dm816x-evm_5_05_01_04/component-sources/syslink_2_20_00_14/packages/ti/syslink/lib/syslink.a_debug(MemoryOS.o)
 .comment       0x000006b8       0x2b /home/user/ti-ezsdk_dm816x-evm_5_05_01_04/component-sources/syslink_2_20_00_14/packages/ti/syslink/lib/syslink.a_debug(OsalDrv.o)
 .comment       0x000006e3       0x2b /home/user/ti-ezsdk_dm816x-evm_5_05_01_04/component-sources/syslink_2_20_00_14/packages/ti/syslink/lib/syslink.a_debug(OsalMutex.o)
 .comment       0x0000070e       0x2b /home/user/ti-ezsdk_dm816x-evm_5_05_01_04/component-sources/syslink_2_20_00_14/packages/ti/syslink/lib/syslink.a_debug(OsalPrint.o)
 .comment       0x00000739       0x2b /home/user/ti-ezsdk_dm816x-evm_5_05_01_04/component-sources/syslink_2_20_00_14/packages/ti/syslink/lib/syslink.a_debug(ProcMgr.o)
 .comment       0x00000764       0x2b /home/user/ti-ezsdk_dm816x-evm_5_05_01_04/component-sources/syslink_2_20_00_14/packages/ti/syslink/lib/syslink.a_debug(ProcMgrDrvUsr.o)
 .comment       0x0000078f       0x2b /home/user/ti-ezsdk_dm816x-evm_5_05_01_04/component-sources/syslink_2_20_00_14/packages/ti/syslink/lib/syslink.a_debug(FrameQ_common.o)
 .comment       0x000007ba       0x2b /home/user/ti-ezsdk_dm816x-evm_5_05_01_04/component-sources/syslink_2_20_00_14/packages/ti/syslink/lib/syslink.a_debug(ListMP.o)
 .comment       0x000007e5       0x2b /home/user/ti-ezsdk_dm816x-evm_5_05_01_04/component-sources/syslink_2_20_00_14/packages/ti/syslink/lib/syslink.a_debug(MessageQ.o)
 .comment       0x00000810       0x2b /home/user/ti-ezsdk_dm816x-evm_5_05_01_04/component-sources/syslink_2_20_00_14/packages/ti/syslink/lib/syslink.a_debug(ListMPDrv.o)
 .comment       0x0000083b       0x2b /home/user/ti-ezsdk_dm816x-evm_5_05_01_04/component-sources/syslink_2_20_00_14/packages/ti/syslink/lib/syslink.a_debug(MessageQDrv.o)

.debug
 *(.debug)

.line
 *(.line)

.debug_srcinfo
 *(.debug_srcinfo)

.debug_sfnames
 *(.debug_sfnames)

.debug_aranges  0x00000000      0x640
 *(.debug_aranges)
 .debug_aranges
                0x00000000       0x20 bin/debug/obj/main_host.ov5T
 .debug_aranges
                0x00000020       0x20 bin/debug/obj/App.ov5T
 .debug_aranges
                0x00000040       0x20 /home/user/ti-ezsdk_dm816x-evm_5_05_01_04/component-sources/syslink_2_20_00_14/packages/ti/syslink/lib/syslink.a_debug(SharedRegion.o)
 .debug_aranges
                0x00000060       0x20 /home/user/ti-ezsdk_dm816x-evm_5_05_01_04/component-sources/syslink_2_20_00_14/packages/ti/syslink/lib/syslink.a_debug(Notify.o)
 .debug_aranges
                0x00000080       0x20 /home/user/ti-ezsdk_dm816x-evm_5_05_01_04/component-sources/syslink_2_20_00_14/packages/ti/syslink/lib/syslink.a_debug(Ipc.o)
 .debug_aranges
                0x000000a0       0x20 /home/user/ti-ezsdk_dm816x-evm_5_05_01_04/component-sources/syslink_2_20_00_14/packages/ti/syslink/lib/syslink.a_debug(RingIO.o)
 .debug_aranges
                0x000000c0       0x20 /home/user/ti-ezsdk_dm816x-evm_5_05_01_04/component-sources/syslink_2_20_00_14/packages/ti/syslink/lib/syslink.a_debug(RingIOShm.o)
 .debug_aranges
                0x000000e0       0x20 /home/user/ti-ezsdk_dm816x-evm_5_05_01_04/component-sources/syslink_2_20_00_14/packages/ti/syslink/lib/syslink.a_debug(FrameQ.o)
 .debug_aranges
                0x00000100       0x20 /home/user/ti-ezsdk_dm816x-evm_5_05_01_04/component-sources/syslink_2_20_00_14/packages/ti/syslink/lib/syslink.a_debug(FrameQBufMgr.o)
 .debug_aranges
                0x00000120       0x20 /home/user/ti-ezsdk_dm816x-evm_5_05_01_04/component-sources/syslink_2_20_00_14/packages/ti/syslink/lib/syslink.a_debug(ClientNotifyMgr.o)
 .debug_aranges
                0x00000140       0x20 /home/user/ti-ezsdk_dm816x-evm_5_05_01_04/component-sources/syslink_2_20_00_14/packages/ti/syslink/lib/syslink.a_debug(HeapMemMP.o)
 .debug_aranges
                0x00000160       0x20 /home/user/ti-ezsdk_dm816x-evm_5_05_01_04/component-sources/syslink_2_20_00_14/packages/ti/syslink/lib/syslink.a_debug(HeapBufMP.o)
 .debug_aranges
                0x00000180       0x20 /home/user/ti-ezsdk_dm816x-evm_5_05_01_04/component-sources/syslink_2_20_00_14/packages/ti/syslink/lib/syslink.a_debug(GateMP.o)
 .debug_aranges
                0x000001a0       0x20 /home/user/ti-ezsdk_dm816x-evm_5_05_01_04/component-sources/syslink_2_20_00_14/packages/ti/syslink/lib/syslink.a_debug(SharedRegionDrv.o)
 .debug_aranges
                0x000001c0       0x20 /home/user/ti-ezsdk_dm816x-evm_5_05_01_04/component-sources/syslink_2_20_00_14/packages/ti/syslink/lib/syslink.a_debug(NotifyDrvUsr.o)
 .debug_aranges
                0x000001e0       0x20 /home/user/ti-ezsdk_dm816x-evm_5_05_01_04/component-sources/syslink_2_20_00_14/packages/ti/syslink/lib/syslink.a_debug(HeapBufMPDrv.o)
 .debug_aranges
                0x00000200       0x20 /home/user/ti-ezsdk_dm816x-evm_5_05_01_04/component-sources/syslink_2_20_00_14/packages/ti/syslink/lib/syslink.a_debug(IpcDrv.o)
 .debug_aranges
                0x00000220       0x20 /home/user/ti-ezsdk_dm816x-evm_5_05_01_04/component-sources/syslink_2_20_00_14/packages/ti/syslink/lib/syslink.a_debug(FrameQDrv.o)
 .debug_aranges
                0x00000240       0x20 /home/user/ti-ezsdk_dm816x-evm_5_05_01_04/component-sources/syslink_2_20_00_14/packages/ti/syslink/lib/syslink.a_debug(FrameQBufMgrDrv.o)
 .debug_aranges
                0x00000260       0x20 /home/user/ti-ezsdk_dm816x-evm_5_05_01_04/component-sources/syslink_2_20_00_14/packages/ti/syslink/lib/syslink.a_debug(ClientNotifyMgrDrv.o)
 .debug_aranges
                0x00000280       0x20 /home/user/ti-ezsdk_dm816x-evm_5_05_01_04/component-sources/syslink_2_20_00_14/packages/ti/syslink/lib/syslink.a_debug(RingIODrv.o)
 .debug_aranges
                0x000002a0       0x20 /home/user/ti-ezsdk_dm816x-evm_5_05_01_04/component-sources/syslink_2_20_00_14/packages/ti/syslink/lib/syslink.a_debug(RingIOShmDrv.o)
 .debug_aranges
                0x000002c0       0x20 /home/user/ti-ezsdk_dm816x-evm_5_05_01_04/component-sources/syslink_2_20_00_14/packages/ti/syslink/lib/syslink.a_debug(HeapMemMPDrv.o)
 .debug_aranges
                0x000002e0       0x20 /home/user/ti-ezsdk_dm816x-evm_5_05_01_04/component-sources/syslink_2_20_00_14/packages/ti/syslink/lib/syslink.a_debug(GateMPDrv.o)
 .debug_aranges
                0x00000300       0x20 /home/user/ti-ezsdk_dm816x-evm_5_05_01_04/component-sources/syslink_2_20_00_14/packages/ti/syslink/lib/syslink.a_debug(OsalProcess.o)
 .debug_aranges
                0x00000320       0x20 /home/user/ti-ezsdk_dm816x-evm_5_05_01_04/component-sources/syslink_2_20_00_14/packages/ti/syslink/lib/syslink.a_debug(GateMutex.o)
 .debug_aranges
                0x00000340       0x20 /home/user/ti-ezsdk_dm816x-evm_5_05_01_04/component-sources/syslink_2_20_00_14/packages/ti/syslink/lib/syslink.a_debug(Memory.o)
 .debug_aranges
                0x00000360       0x20 /home/user/ti-ezsdk_dm816x-evm_5_05_01_04/component-sources/syslink_2_20_00_14/packages/ti/syslink/lib/syslink.a_debug(List.o)
 .debug_aranges
                0x00000380       0x20 /home/user/ti-ezsdk_dm816x-evm_5_05_01_04/component-sources/syslink_2_20_00_14/packages/ti/syslink/lib/syslink.a_debug(String.o)
 .debug_aranges
                0x000003a0       0x20 /home/user/ti-ezsdk_dm816x-evm_5_05_01_04/component-sources/syslink_2_20_00_14/packages/ti/syslink/lib/syslink.a_debug(Trace.o)
 .debug_aranges
                0x000003c0       0x20 /home/user/ti-ezsdk_dm816x-evm_5_05_01_04/component-sources/syslink_2_20_00_14/packages/ti/syslink/lib/syslink.a_debug(NameServer.o)
 .debug_aranges
                0x000003e0       0x20 /home/user/ti-ezsdk_dm816x-evm_5_05_01_04/component-sources/syslink_2_20_00_14/packages/ti/syslink/lib/syslink.a_debug(MultiProc.o)
 .debug_aranges
                0x00000400       0x20 /home/user/ti-ezsdk_dm816x-evm_5_05_01_04/component-sources/syslink_2_20_00_14/packages/ti/syslink/lib/syslink.a_debug(Gate.o)
 .debug_aranges
                0x00000420       0x20 /home/user/ti-ezsdk_dm816x-evm_5_05_01_04/component-sources/syslink_2_20_00_14/packages/ti/syslink/lib/syslink.a_debug(SysLink.o)
 .debug_aranges
                0x00000440       0x20 /home/user/ti-ezsdk_dm816x-evm_5_05_01_04/component-sources/syslink_2_20_00_14/packages/ti/syslink/lib/syslink.a_debug(Cache.o)
 .debug_aranges
                0x00000460       0x20 /home/user/ti-ezsdk_dm816x-evm_5_05_01_04/component-sources/syslink_2_20_00_14/packages/ti/syslink/lib/syslink.a_debug(NameServerDrv.o)
 .debug_aranges
                0x00000480       0x20 /home/user/ti-ezsdk_dm816x-evm_5_05_01_04/component-sources/syslink_2_20_00_14/packages/ti/syslink/lib/syslink.a_debug(MultiProcDrv.o)
 .debug_aranges
                0x000004a0       0x20 /home/user/ti-ezsdk_dm816x-evm_5_05_01_04/component-sources/syslink_2_20_00_14/packages/ti/syslink/lib/syslink.a_debug(TraceDrv.o)
 .debug_aranges
                0x000004c0       0x20 /home/user/ti-ezsdk_dm816x-evm_5_05_01_04/component-sources/syslink_2_20_00_14/packages/ti/syslink/lib/syslink.a_debug(CacheDrv.o)
 .debug_aranges
                0x000004e0       0x20 /home/user/ti-ezsdk_dm816x-evm_5_05_01_04/component-sources/syslink_2_20_00_14/packages/ti/syslink/lib/syslink.a_debug(MemoryOS.o)
 .debug_aranges
                0x00000500       0x20 /home/user/ti-ezsdk_dm816x-evm_5_05_01_04/component-sources/syslink_2_20_00_14/packages/ti/syslink/lib/syslink.a_debug(OsalDrv.o)
 .debug_aranges
                0x00000520       0x20 /home/user/ti-ezsdk_dm816x-evm_5_05_01_04/component-sources/syslink_2_20_00_14/packages/ti/syslink/lib/syslink.a_debug(OsalMutex.o)
 .debug_aranges
                0x00000540       0x20 /home/user/ti-ezsdk_dm816x-evm_5_05_01_04/component-sources/syslink_2_20_00_14/packages/ti/syslink/lib/syslink.a_debug(OsalPrint.o)
 .debug_aranges
                0x00000560       0x20 /home/user/ti-ezsdk_dm816x-evm_5_05_01_04/component-sources/syslink_2_20_00_14/packages/ti/syslink/lib/syslink.a_debug(ProcMgr.o)
 .debug_aranges
                0x00000580       0x20 /home/user/ti-ezsdk_dm816x-evm_5_05_01_04/component-sources/syslink_2_20_00_14/packages/ti/syslink/lib/syslink.a_debug(ProcMgrDrvUsr.o)
 .debug_aranges
                0x000005a0       0x20 /home/user/ti-ezsdk_dm816x-evm_5_05_01_04/component-sources/syslink_2_20_00_14/packages/ti/syslink/lib/syslink.a_debug(FrameQ_common.o)
 .debug_aranges
                0x000005c0       0x20 /home/user/ti-ezsdk_dm816x-evm_5_05_01_04/component-sources/syslink_2_20_00_14/packages/ti/syslink/lib/syslink.a_debug(ListMP.o)
 .debug_aranges
                0x000005e0       0x20 /home/user/ti-ezsdk_dm816x-evm_5_05_01_04/component-sources/syslink_2_20_00_14/packages/ti/syslink/lib/syslink.a_debug(MessageQ.o)
 .debug_aranges
                0x00000600       0x20 /home/user/ti-ezsdk_dm816x-evm_5_05_01_04/component-sources/syslink_2_20_00_14/packages/ti/syslink/lib/syslink.a_debug(ListMPDrv.o)
 .debug_aranges
                0x00000620       0x20 /home/user/ti-ezsdk_dm816x-evm_5_05_01_04/component-sources/syslink_2_20_00_14/packages/ti/syslink/lib/syslink.a_debug(MessageQDrv.o)

.debug_pubnames
                0x00000000     0x2f94
 *(.debug_pubnames)
 .debug_pubnames
                0x00000000       0x1b bin/debug/obj/main_host.ov5T
 .debug_pubnames
                0x0000001b       0x57 bin/debug/obj/App.ov5T
 .debug_pubnames
                0x00000072      0x353 /home/user/ti-ezsdk_dm816x-evm_5_05_01_04/component-sources/syslink_2_20_00_14/packages/ti/syslink/lib/syslink.a_debug(SharedRegion.o)
 .debug_pubnames
                0x000003c5      0x1ad /home/user/ti-ezsdk_dm816x-evm_5_05_01_04/component-sources/syslink_2_20_00_14/packages/ti/syslink/lib/syslink.a_debug(Notify.o)
 .debug_pubnames
                0x00000572       0xc5 /home/user/ti-ezsdk_dm816x-evm_5_05_01_04/component-sources/syslink_2_20_00_14/packages/ti/syslink/lib/syslink.a_debug(Ipc.o)
 .debug_pubnames
                0x00000637      0x2ca /home/user/ti-ezsdk_dm816x-evm_5_05_01_04/component-sources/syslink_2_20_00_14/packages/ti/syslink/lib/syslink.a_debug(RingIO.o)
 .debug_pubnames
                0x00000901       0x82 /home/user/ti-ezsdk_dm816x-evm_5_05_01_04/component-sources/syslink_2_20_00_14/packages/ti/syslink/lib/syslink.a_debug(RingIOShm.o)
 .debug_pubnames
                0x00000983      0x268 /home/user/ti-ezsdk_dm816x-evm_5_05_01_04/component-sources/syslink_2_20_00_14/packages/ti/syslink/lib/syslink.a_debug(FrameQ.o)
 .debug_pubnames
                0x00000beb      0x415 /home/user/ti-ezsdk_dm816x-evm_5_05_01_04/component-sources/syslink_2_20_00_14/packages/ti/syslink/lib/syslink.a_debug(FrameQBufMgr.o)
 .debug_pubnames
                0x00001000      0x2ca /home/user/ti-ezsdk_dm816x-evm_5_05_01_04/component-sources/syslink_2_20_00_14/packages/ti/syslink/lib/syslink.a_debug(ClientNotifyMgr.o)
 .debug_pubnames
                0x000012ca      0x1c6 /home/user/ti-ezsdk_dm816x-evm_5_05_01_04/component-sources/syslink_2_20_00_14/packages/ti/syslink/lib/syslink.a_debug(HeapMemMP.o)
 .debug_pubnames
                0x00001490      0x1c3 /home/user/ti-ezsdk_dm816x-evm_5_05_01_04/component-sources/syslink_2_20_00_14/packages/ti/syslink/lib/syslink.a_debug(HeapBufMP.o)
 .debug_pubnames
                0x00001653      0x1db /home/user/ti-ezsdk_dm816x-evm_5_05_01_04/component-sources/syslink_2_20_00_14/packages/ti/syslink/lib/syslink.a_debug(GateMP.o)
 .debug_pubnames
                0x0000182e       0x5f /home/user/ti-ezsdk_dm816x-evm_5_05_01_04/component-sources/syslink_2_20_00_14/packages/ti/syslink/lib/syslink.a_debug(SharedRegionDrv.o)
 .debug_pubnames
                0x0000188d       0x74 /home/user/ti-ezsdk_dm816x-evm_5_05_01_04/component-sources/syslink_2_20_00_14/packages/ti/syslink/lib/syslink.a_debug(NotifyDrvUsr.o)
 .debug_pubnames
                0x00001901       0x56 /home/user/ti-ezsdk_dm816x-evm_5_05_01_04/component-sources/syslink_2_20_00_14/packages/ti/syslink/lib/syslink.a_debug(HeapBufMPDrv.o)
 .debug_pubnames
                0x00001957       0x44 /home/user/ti-ezsdk_dm816x-evm_5_05_01_04/component-sources/syslink_2_20_00_14/packages/ti/syslink/lib/syslink.a_debug(IpcDrv.o)
 .debug_pubnames
                0x0000199b       0x4d /home/user/ti-ezsdk_dm816x-evm_5_05_01_04/component-sources/syslink_2_20_00_14/packages/ti/syslink/lib/syslink.a_debug(FrameQDrv.o)
 .debug_pubnames
                0x000019e8       0x5f /home/user/ti-ezsdk_dm816x-evm_5_05_01_04/component-sources/syslink_2_20_00_14/packages/ti/syslink/lib/syslink.a_debug(FrameQBufMgrDrv.o)
 .debug_pubnames
                0x00001a47       0x68 /home/user/ti-ezsdk_dm816x-evm_5_05_01_04/component-sources/syslink_2_20_00_14/packages/ti/syslink/lib/syslink.a_debug(ClientNotifyMgrDrv.o)
 .debug_pubnames
                0x00001aaf       0x4d /home/user/ti-ezsdk_dm816x-evm_5_05_01_04/component-sources/syslink_2_20_00_14/packages/ti/syslink/lib/syslink.a_debug(RingIODrv.o)
 .debug_pubnames
                0x00001afc       0x56 /home/user/ti-ezsdk_dm816x-evm_5_05_01_04/component-sources/syslink_2_20_00_14/packages/ti/syslink/lib/syslink.a_debug(RingIOShmDrv.o)
 .debug_pubnames
                0x00001b52       0x56 /home/user/ti-ezsdk_dm816x-evm_5_05_01_04/component-sources/syslink_2_20_00_14/packages/ti/syslink/lib/syslink.a_debug(HeapMemMPDrv.o)
 .debug_pubnames
                0x00001ba8       0x4d /home/user/ti-ezsdk_dm816x-evm_5_05_01_04/component-sources/syslink_2_20_00_14/packages/ti/syslink/lib/syslink.a_debug(GateMPDrv.o)
 .debug_pubnames
                0x00001bf5       0x40 /home/user/ti-ezsdk_dm816x-evm_5_05_01_04/component-sources/syslink_2_20_00_14/packages/ti/syslink/lib/syslink.a_debug(OsalProcess.o)
 .debug_pubnames
                0x00001c35       0xa0 /home/user/ti-ezsdk_dm816x-evm_5_05_01_04/component-sources/syslink_2_20_00_14/packages/ti/syslink/lib/syslink.a_debug(GateMutex.o)
 .debug_pubnames
                0x00001cd5       0xb3 /home/user/ti-ezsdk_dm816x-evm_5_05_01_04/component-sources/syslink_2_20_00_14/packages/ti/syslink/lib/syslink.a_debug(Memory.o)
 .debug_pubnames
                0x00001d88      0x12c /home/user/ti-ezsdk_dm816x-evm_5_05_01_04/component-sources/syslink_2_20_00_14/packages/ti/syslink/lib/syslink.a_debug(List.o)
 .debug_pubnames
                0x00001eb4       0x92 /home/user/ti-ezsdk_dm816x-evm_5_05_01_04/component-sources/syslink_2_20_00_14/packages/ti/syslink/lib/syslink.a_debug(String.o)
 .debug_pubnames
                0x00001f46       0xb2 /home/user/ti-ezsdk_dm816x-evm_5_05_01_04/component-sources/syslink_2_20_00_14/packages/ti/syslink/lib/syslink.a_debug(Trace.o)
 .debug_pubnames
                0x00001ff8      0x211 /home/user/ti-ezsdk_dm816x-evm_5_05_01_04/component-sources/syslink_2_20_00_14/packages/ti/syslink/lib/syslink.a_debug(NameServer.o)
 .debug_pubnames
                0x00002209      0x108 /home/user/ti-ezsdk_dm816x-evm_5_05_01_04/component-sources/syslink_2_20_00_14/packages/ti/syslink/lib/syslink.a_debug(MultiProc.o)
 .debug_pubnames
                0x00002311       0x78 /home/user/ti-ezsdk_dm816x-evm_5_05_01_04/component-sources/syslink_2_20_00_14/packages/ti/syslink/lib/syslink.a_debug(Gate.o)
 .debug_pubnames
                0x00002389       0x38 /home/user/ti-ezsdk_dm816x-evm_5_05_01_04/component-sources/syslink_2_20_00_14/packages/ti/syslink/lib/syslink.a_debug(SysLink.o)
 .debug_pubnames
                0x000023c1       0x5e /home/user/ti-ezsdk_dm816x-evm_5_05_01_04/component-sources/syslink_2_20_00_14/packages/ti/syslink/lib/syslink.a_debug(Cache.o)
 .debug_pubnames
                0x0000241f       0x59 /home/user/ti-ezsdk_dm816x-evm_5_05_01_04/component-sources/syslink_2_20_00_14/packages/ti/syslink/lib/syslink.a_debug(NameServerDrv.o)
 .debug_pubnames
                0x00002478       0x56 /home/user/ti-ezsdk_dm816x-evm_5_05_01_04/component-sources/syslink_2_20_00_14/packages/ti/syslink/lib/syslink.a_debug(MultiProcDrv.o)
 .debug_pubnames
                0x000024ce       0x25 /home/user/ti-ezsdk_dm816x-evm_5_05_01_04/component-sources/syslink_2_20_00_14/packages/ti/syslink/lib/syslink.a_debug(TraceDrv.o)
 .debug_pubnames
                0x000024f3       0x25 /home/user/ti-ezsdk_dm816x-evm_5_05_01_04/component-sources/syslink_2_20_00_14/packages/ti/syslink/lib/syslink.a_debug(CacheDrv.o)
 .debug_pubnames
                0x00002518       0xe4 /home/user/ti-ezsdk_dm816x-evm_5_05_01_04/component-sources/syslink_2_20_00_14/packages/ti/syslink/lib/syslink.a_debug(MemoryOS.o)
 .debug_pubnames
                0x000025fc       0x69 /home/user/ti-ezsdk_dm816x-evm_5_05_01_04/component-sources/syslink_2_20_00_14/packages/ti/syslink/lib/syslink.a_debug(OsalDrv.o)
 .debug_pubnames
                0x00002665       0x64 /home/user/ti-ezsdk_dm816x-evm_5_05_01_04/component-sources/syslink_2_20_00_14/packages/ti/syslink/lib/syslink.a_debug(OsalMutex.o)
 .debug_pubnames
                0x000026c9       0x22 /home/user/ti-ezsdk_dm816x-evm_5_05_01_04/component-sources/syslink_2_20_00_14/packages/ti/syslink/lib/syslink.a_debug(OsalPrint.o)
 .debug_pubnames
                0x000026eb      0x294 /home/user/ti-ezsdk_dm816x-evm_5_05_01_04/component-sources/syslink_2_20_00_14/packages/ti/syslink/lib/syslink.a_debug(ProcMgr.o)
 .debug_pubnames
                0x0000297f       0x59 /home/user/ti-ezsdk_dm816x-evm_5_05_01_04/component-sources/syslink_2_20_00_14/packages/ti/syslink/lib/syslink.a_debug(ProcMgrDrvUsr.o)
 .debug_pubnames
                0x000029d8      0x131 /home/user/ti-ezsdk_dm816x-evm_5_05_01_04/component-sources/syslink_2_20_00_14/packages/ti/syslink/lib/syslink.a_debug(FrameQ_common.o)
 .debug_pubnames
                0x00002b09      0x1bf /home/user/ti-ezsdk_dm816x-evm_5_05_01_04/component-sources/syslink_2_20_00_14/packages/ti/syslink/lib/syslink.a_debug(ListMP.o)
 .debug_pubnames
                0x00002cc8      0x22c /home/user/ti-ezsdk_dm816x-evm_5_05_01_04/component-sources/syslink_2_20_00_14/packages/ti/syslink/lib/syslink.a_debug(MessageQ.o)
 .debug_pubnames
                0x00002ef4       0x4d /home/user/ti-ezsdk_dm816x-evm_5_05_01_04/component-sources/syslink_2_20_00_14/packages/ti/syslink/lib/syslink.a_debug(ListMPDrv.o)
 .debug_pubnames
                0x00002f41       0x53 /home/user/ti-ezsdk_dm816x-evm_5_05_01_04/component-sources/syslink_2_20_00_14/packages/ti/syslink/lib/syslink.a_debug(MessageQDrv.o)

.debug_info     0x00000000    0x1e4bb
 *(.debug_info .gnu.linkonce.wi.*)
 .debug_info    0x00000000      0x215 bin/debug/obj/main_host.ov5T
 .debug_info    0x00000215      0x81d bin/debug/obj/App.ov5T
 .debug_info    0x00000a32     0x1250 /home/user/ti-ezsdk_dm816x-evm_5_05_01_04/component-sources/syslink_2_20_00_14/packages/ti/syslink/lib/syslink.a_debug(SharedRegion.o)
 .debug_info    0x00001c82      0xeab /home/user/ti-ezsdk_dm816x-evm_5_05_01_04/component-sources/syslink_2_20_00_14/packages/ti/syslink/lib/syslink.a_debug(Notify.o)
 .debug_info    0x00002b2d      0xdf6 /home/user/ti-ezsdk_dm816x-evm_5_05_01_04/component-sources/syslink_2_20_00_14/packages/ti/syslink/lib/syslink.a_debug(Ipc.o)
 .debug_info    0x00003923     0x1bbd /home/user/ti-ezsdk_dm816x-evm_5_05_01_04/component-sources/syslink_2_20_00_14/packages/ti/syslink/lib/syslink.a_debug(RingIO.o)
 .debug_info    0x000054e0      0x32f /home/user/ti-ezsdk_dm816x-evm_5_05_01_04/component-sources/syslink_2_20_00_14/packages/ti/syslink/lib/syslink.a_debug(RingIOShm.o)
 .debug_info    0x0000580f     0x233b /home/user/ti-ezsdk_dm816x-evm_5_05_01_04/component-sources/syslink_2_20_00_14/packages/ti/syslink/lib/syslink.a_debug(FrameQ.o)
 .debug_info    0x00007b4a     0x25a9 /home/user/ti-ezsdk_dm816x-evm_5_05_01_04/component-sources/syslink_2_20_00_14/packages/ti/syslink/lib/syslink.a_debug(FrameQBufMgr.o)
 .debug_info    0x0000a0f3     0x1850 /home/user/ti-ezsdk_dm816x-evm_5_05_01_04/component-sources/syslink_2_20_00_14/packages/ti/syslink/lib/syslink.a_debug(ClientNotifyMgr.o)
 .debug_info    0x0000b943      0xdaa /home/user/ti-ezsdk_dm816x-evm_5_05_01_04/component-sources/syslink_2_20_00_14/packages/ti/syslink/lib/syslink.a_debug(HeapMemMP.o)
 .debug_info    0x0000c6ed      0xd7b /home/user/ti-ezsdk_dm816x-evm_5_05_01_04/component-sources/syslink_2_20_00_14/packages/ti/syslink/lib/syslink.a_debug(HeapBufMP.o)
 .debug_info    0x0000d468      0xee3 /home/user/ti-ezsdk_dm816x-evm_5_05_01_04/component-sources/syslink_2_20_00_14/packages/ti/syslink/lib/syslink.a_debug(GateMP.o)
 .debug_info    0x0000e34b      0x762 /home/user/ti-ezsdk_dm816x-evm_5_05_01_04/component-sources/syslink_2_20_00_14/packages/ti/syslink/lib/syslink.a_debug(SharedRegionDrv.o)
 .debug_info    0x0000eaad      0x4d1 /home/user/ti-ezsdk_dm816x-evm_5_05_01_04/component-sources/syslink_2_20_00_14/packages/ti/syslink/lib/syslink.a_debug(NotifyDrvUsr.o)
 .debug_info    0x0000ef7e      0x677 /home/user/ti-ezsdk_dm816x-evm_5_05_01_04/component-sources/syslink_2_20_00_14/packages/ti/syslink/lib/syslink.a_debug(HeapBufMPDrv.o)
 .debug_info    0x0000f5f5      0x3a5 /home/user/ti-ezsdk_dm816x-evm_5_05_01_04/component-sources/syslink_2_20_00_14/packages/ti/syslink/lib/syslink.a_debug(IpcDrv.o)
 .debug_info    0x0000f99a      0xa71 /home/user/ti-ezsdk_dm816x-evm_5_05_01_04/component-sources/syslink_2_20_00_14/packages/ti/syslink/lib/syslink.a_debug(FrameQDrv.o)
 .debug_info    0x0001040b      0xbb1 /home/user/ti-ezsdk_dm816x-evm_5_05_01_04/component-sources/syslink_2_20_00_14/packages/ti/syslink/lib/syslink.a_debug(FrameQBufMgrDrv.o)
 .debug_info    0x00010fbc      0x6d9 /home/user/ti-ezsdk_dm816x-evm_5_05_01_04/component-sources/syslink_2_20_00_14/packages/ti/syslink/lib/syslink.a_debug(ClientNotifyMgrDrv.o)
 .debug_info    0x00011695      0xb80 /home/user/ti-ezsdk_dm816x-evm_5_05_01_04/component-sources/syslink_2_20_00_14/packages/ti/syslink/lib/syslink.a_debug(RingIODrv.o)
 .debug_info    0x00012215      0x2b1 /home/user/ti-ezsdk_dm816x-evm_5_05_01_04/component-sources/syslink_2_20_00_14/packages/ti/syslink/lib/syslink.a_debug(RingIOShmDrv.o)
 .debug_info    0x000124c6      0x65a /home/user/ti-ezsdk_dm816x-evm_5_05_01_04/component-sources/syslink_2_20_00_14/packages/ti/syslink/lib/syslink.a_debug(HeapMemMPDrv.o)
 .debug_info    0x00012b20      0x61e /home/user/ti-ezsdk_dm816x-evm_5_05_01_04/component-sources/syslink_2_20_00_14/packages/ti/syslink/lib/syslink.a_debug(GateMPDrv.o)
 .debug_info    0x0001313e      0x112 /home/user/ti-ezsdk_dm816x-evm_5_05_01_04/component-sources/syslink_2_20_00_14/packages/ti/syslink/lib/syslink.a_debug(OsalProcess.o)
 .debug_info    0x00013250      0x3d3 /home/user/ti-ezsdk_dm816x-evm_5_05_01_04/component-sources/syslink_2_20_00_14/packages/ti/syslink/lib/syslink.a_debug(GateMutex.o)
 .debug_info    0x00013623      0x621 /home/user/ti-ezsdk_dm816x-evm_5_05_01_04/component-sources/syslink_2_20_00_14/packages/ti/syslink/lib/syslink.a_debug(Memory.o)
 .debug_info    0x00013c44      0x66f /home/user/ti-ezsdk_dm816x-evm_5_05_01_04/component-sources/syslink_2_20_00_14/packages/ti/syslink/lib/syslink.a_debug(List.o)
 .debug_info    0x000142b3      0x361 /home/user/ti-ezsdk_dm816x-evm_5_05_01_04/component-sources/syslink_2_20_00_14/packages/ti/syslink/lib/syslink.a_debug(String.o)
 .debug_info    0x00014614      0x5bc /home/user/ti-ezsdk_dm816x-evm_5_05_01_04/component-sources/syslink_2_20_00_14/packages/ti/syslink/lib/syslink.a_debug(Trace.o)
 .debug_info    0x00014bd0      0xe1a /home/user/ti-ezsdk_dm816x-evm_5_05_01_04/component-sources/syslink_2_20_00_14/packages/ti/syslink/lib/syslink.a_debug(NameServer.o)
 .debug_info    0x000159ea      0x4f7 /home/user/ti-ezsdk_dm816x-evm_5_05_01_04/component-sources/syslink_2_20_00_14/packages/ti/syslink/lib/syslink.a_debug(MultiProc.o)
 .debug_info    0x00015ee1      0x337 /home/user/ti-ezsdk_dm816x-evm_5_05_01_04/component-sources/syslink_2_20_00_14/packages/ti/syslink/lib/syslink.a_debug(Gate.o)
 .debug_info    0x00016218      0x82d /home/user/ti-ezsdk_dm816x-evm_5_05_01_04/component-sources/syslink_2_20_00_14/packages/ti/syslink/lib/syslink.a_debug(SysLink.o)
 .debug_info    0x00016a45      0x486 /home/user/ti-ezsdk_dm816x-evm_5_05_01_04/component-sources/syslink_2_20_00_14/packages/ti/syslink/lib/syslink.a_debug(Cache.o)
 .debug_info    0x00016ecb      0x717 /home/user/ti-ezsdk_dm816x-evm_5_05_01_04/component-sources/syslink_2_20_00_14/packages/ti/syslink/lib/syslink.a_debug(NameServerDrv.o)
 .debug_info    0x000175e2      0x2f3 /home/user/ti-ezsdk_dm816x-evm_5_05_01_04/component-sources/syslink_2_20_00_14/packages/ti/syslink/lib/syslink.a_debug(MultiProcDrv.o)
 .debug_info    0x000178d5      0x20d /home/user/ti-ezsdk_dm816x-evm_5_05_01_04/component-sources/syslink_2_20_00_14/packages/ti/syslink/lib/syslink.a_debug(TraceDrv.o)
 .debug_info    0x00017ae2      0x2ed /home/user/ti-ezsdk_dm816x-evm_5_05_01_04/component-sources/syslink_2_20_00_14/packages/ti/syslink/lib/syslink.a_debug(CacheDrv.o)
 .debug_info    0x00017dcf      0xa07 /home/user/ti-ezsdk_dm816x-evm_5_05_01_04/component-sources/syslink_2_20_00_14/packages/ti/syslink/lib/syslink.a_debug(MemoryOS.o)
 .debug_info    0x000187d6      0x3ce /home/user/ti-ezsdk_dm816x-evm_5_05_01_04/component-sources/syslink_2_20_00_14/packages/ti/syslink/lib/syslink.a_debug(OsalDrv.o)
 .debug_info    0x00018ba4      0x36d /home/user/ti-ezsdk_dm816x-evm_5_05_01_04/component-sources/syslink_2_20_00_14/packages/ti/syslink/lib/syslink.a_debug(OsalMutex.o)
 .debug_info    0x00018f11      0x110 /home/user/ti-ezsdk_dm816x-evm_5_05_01_04/component-sources/syslink_2_20_00_14/packages/ti/syslink/lib/syslink.a_debug(OsalPrint.o)
 .debug_info    0x00019021     0x1e89 /home/user/ti-ezsdk_dm816x-evm_5_05_01_04/component-sources/syslink_2_20_00_14/packages/ti/syslink/lib/syslink.a_debug(ProcMgr.o)
 .debug_info    0x0001aeaa      0x229 /home/user/ti-ezsdk_dm816x-evm_5_05_01_04/component-sources/syslink_2_20_00_14/packages/ti/syslink/lib/syslink.a_debug(ProcMgrDrvUsr.o)
 .debug_info    0x0001b0d3      0x563 /home/user/ti-ezsdk_dm816x-evm_5_05_01_04/component-sources/syslink_2_20_00_14/packages/ti/syslink/lib/syslink.a_debug(FrameQ_common.o)
 .debug_info    0x0001b636      0xf1f /home/user/ti-ezsdk_dm816x-evm_5_05_01_04/component-sources/syslink_2_20_00_14/packages/ti/syslink/lib/syslink.a_debug(ListMP.o)
 .debug_info    0x0001c555     0x10b2 /home/user/ti-ezsdk_dm816x-evm_5_05_01_04/component-sources/syslink_2_20_00_14/packages/ti/syslink/lib/syslink.a_debug(MessageQ.o)
 .debug_info    0x0001d607      0x6e7 /home/user/ti-ezsdk_dm816x-evm_5_05_01_04/component-sources/syslink_2_20_00_14/packages/ti/syslink/lib/syslink.a_debug(ListMPDrv.o)
 .debug_info    0x0001dcee      0x7cd /home/user/ti-ezsdk_dm816x-evm_5_05_01_04/component-sources/syslink_2_20_00_14/packages/ti/syslink/lib/syslink.a_debug(MessageQDrv.o)

.debug_abbrev   0x00000000     0x4bdd
 *(.debug_abbrev)
 .debug_abbrev  0x00000000       0xc0 bin/debug/obj/main_host.ov5T
 .debug_abbrev  0x000000c0      0x1f0 bin/debug/obj/App.ov5T
 .debug_abbrev  0x000002b0      0x253 /home/user/ti-ezsdk_dm816x-evm_5_05_01_04/component-sources/syslink_2_20_00_14/packages/ti/syslink/lib/syslink.a_debug(SharedRegion.o)
 .debug_abbrev  0x00000503      0x1c4 /home/user/ti-ezsdk_dm816x-evm_5_05_01_04/component-sources/syslink_2_20_00_14/packages/ti/syslink/lib/syslink.a_debug(Notify.o)
 .debug_abbrev  0x000006c7      0x1f6 /home/user/ti-ezsdk_dm816x-evm_5_05_01_04/component-sources/syslink_2_20_00_14/packages/ti/syslink/lib/syslink.a_debug(Ipc.o)
 .debug_abbrev  0x000008bd      0x22d /home/user/ti-ezsdk_dm816x-evm_5_05_01_04/component-sources/syslink_2_20_00_14/packages/ti/syslink/lib/syslink.a_debug(RingIO.o)
 .debug_abbrev  0x00000aea      0x180 /home/user/ti-ezsdk_dm816x-evm_5_05_01_04/component-sources/syslink_2_20_00_14/packages/ti/syslink/lib/syslink.a_debug(RingIOShm.o)
 .debug_abbrev  0x00000c6a      0x28b /home/user/ti-ezsdk_dm816x-evm_5_05_01_04/component-sources/syslink_2_20_00_14/packages/ti/syslink/lib/syslink.a_debug(FrameQ.o)
 .debug_abbrev  0x00000ef5      0x295 /home/user/ti-ezsdk_dm816x-evm_5_05_01_04/component-sources/syslink_2_20_00_14/packages/ti/syslink/lib/syslink.a_debug(FrameQBufMgr.o)
 .debug_abbrev  0x0000118a      0x217 /home/user/ti-ezsdk_dm816x-evm_5_05_01_04/component-sources/syslink_2_20_00_14/packages/ti/syslink/lib/syslink.a_debug(ClientNotifyMgr.o)
 .debug_abbrev  0x000013a1      0x1cd /home/user/ti-ezsdk_dm816x-evm_5_05_01_04/component-sources/syslink_2_20_00_14/packages/ti/syslink/lib/syslink.a_debug(HeapMemMP.o)
 .debug_abbrev  0x0000156e      0x1c0 /home/user/ti-ezsdk_dm816x-evm_5_05_01_04/component-sources/syslink_2_20_00_14/packages/ti/syslink/lib/syslink.a_debug(HeapBufMP.o)
 .debug_abbrev  0x0000172e      0x213 /home/user/ti-ezsdk_dm816x-evm_5_05_01_04/component-sources/syslink_2_20_00_14/packages/ti/syslink/lib/syslink.a_debug(GateMP.o)
 .debug_abbrev  0x00001941      0x16b /home/user/ti-ezsdk_dm816x-evm_5_05_01_04/component-sources/syslink_2_20_00_14/packages/ti/syslink/lib/syslink.a_debug(SharedRegionDrv.o)
 .debug_abbrev  0x00001aac      0x1bb /home/user/ti-ezsdk_dm816x-evm_5_05_01_04/component-sources/syslink_2_20_00_14/packages/ti/syslink/lib/syslink.a_debug(NotifyDrvUsr.o)
 .debug_abbrev  0x00001c67      0x132 /home/user/ti-ezsdk_dm816x-evm_5_05_01_04/component-sources/syslink_2_20_00_14/packages/ti/syslink/lib/syslink.a_debug(HeapBufMPDrv.o)
 .debug_abbrev  0x00001d99      0x113 /home/user/ti-ezsdk_dm816x-evm_5_05_01_04/component-sources/syslink_2_20_00_14/packages/ti/syslink/lib/syslink.a_debug(IpcDrv.o)
 .debug_abbrev  0x00001eac      0x18e /home/user/ti-ezsdk_dm816x-evm_5_05_01_04/component-sources/syslink_2_20_00_14/packages/ti/syslink/lib/syslink.a_debug(FrameQDrv.o)
 .debug_abbrev  0x0000203a      0x19d /home/user/ti-ezsdk_dm816x-evm_5_05_01_04/component-sources/syslink_2_20_00_14/packages/ti/syslink/lib/syslink.a_debug(FrameQBufMgrDrv.o)
 .debug_abbrev  0x000021d7      0x140 /home/user/ti-ezsdk_dm816x-evm_5_05_01_04/component-sources/syslink_2_20_00_14/packages/ti/syslink/lib/syslink.a_debug(ClientNotifyMgrDrv.o)
 .debug_abbrev  0x00002317      0x16f /home/user/ti-ezsdk_dm816x-evm_5_05_01_04/component-sources/syslink_2_20_00_14/packages/ti/syslink/lib/syslink.a_debug(RingIODrv.o)
 .debug_abbrev  0x00002486      0x10d /home/user/ti-ezsdk_dm816x-evm_5_05_01_04/component-sources/syslink_2_20_00_14/packages/ti/syslink/lib/syslink.a_debug(RingIOShmDrv.o)
 .debug_abbrev  0x00002593      0x141 /home/user/ti-ezsdk_dm816x-evm_5_05_01_04/component-sources/syslink_2_20_00_14/packages/ti/syslink/lib/syslink.a_debug(HeapMemMPDrv.o)
 .debug_abbrev  0x000026d4      0x150 /home/user/ti-ezsdk_dm816x-evm_5_05_01_04/component-sources/syslink_2_20_00_14/packages/ti/syslink/lib/syslink.a_debug(GateMPDrv.o)
 .debug_abbrev  0x00002824       0x7d /home/user/ti-ezsdk_dm816x-evm_5_05_01_04/component-sources/syslink_2_20_00_14/packages/ti/syslink/lib/syslink.a_debug(OsalProcess.o)
 .debug_abbrev  0x000028a1      0x142 /home/user/ti-ezsdk_dm816x-evm_5_05_01_04/component-sources/syslink_2_20_00_14/packages/ti/syslink/lib/syslink.a_debug(GateMutex.o)
 .debug_abbrev  0x000029e3      0x1d6 /home/user/ti-ezsdk_dm816x-evm_5_05_01_04/component-sources/syslink_2_20_00_14/packages/ti/syslink/lib/syslink.a_debug(Memory.o)
 .debug_abbrev  0x00002bb9      0x169 /home/user/ti-ezsdk_dm816x-evm_5_05_01_04/component-sources/syslink_2_20_00_14/packages/ti/syslink/lib/syslink.a_debug(List.o)
 .debug_abbrev  0x00002d22       0xf9 /home/user/ti-ezsdk_dm816x-evm_5_05_01_04/component-sources/syslink_2_20_00_14/packages/ti/syslink/lib/syslink.a_debug(String.o)
 .debug_abbrev  0x00002e1b      0x143 /home/user/ti-ezsdk_dm816x-evm_5_05_01_04/component-sources/syslink_2_20_00_14/packages/ti/syslink/lib/syslink.a_debug(Trace.o)
 .debug_abbrev  0x00002f5e      0x1fa /home/user/ti-ezsdk_dm816x-evm_5_05_01_04/component-sources/syslink_2_20_00_14/packages/ti/syslink/lib/syslink.a_debug(NameServer.o)
 .debug_abbrev  0x00003158      0x1bb /home/user/ti-ezsdk_dm816x-evm_5_05_01_04/component-sources/syslink_2_20_00_14/packages/ti/syslink/lib/syslink.a_debug(MultiProc.o)
 .debug_abbrev  0x00003313      0x156 /home/user/ti-ezsdk_dm816x-evm_5_05_01_04/component-sources/syslink_2_20_00_14/packages/ti/syslink/lib/syslink.a_debug(Gate.o)
 .debug_abbrev  0x00003469      0x160 /home/user/ti-ezsdk_dm816x-evm_5_05_01_04/component-sources/syslink_2_20_00_14/packages/ti/syslink/lib/syslink.a_debug(SysLink.o)
 .debug_abbrev  0x000035c9      0x128 /home/user/ti-ezsdk_dm816x-evm_5_05_01_04/component-sources/syslink_2_20_00_14/packages/ti/syslink/lib/syslink.a_debug(Cache.o)
 .debug_abbrev  0x000036f1      0x177 /home/user/ti-ezsdk_dm816x-evm_5_05_01_04/component-sources/syslink_2_20_00_14/packages/ti/syslink/lib/syslink.a_debug(NameServerDrv.o)
 .debug_abbrev  0x00003868      0x13d /home/user/ti-ezsdk_dm816x-evm_5_05_01_04/component-sources/syslink_2_20_00_14/packages/ti/syslink/lib/syslink.a_debug(MultiProcDrv.o)
 .debug_abbrev  0x000039a5      0x10b /home/user/ti-ezsdk_dm816x-evm_5_05_01_04/component-sources/syslink_2_20_00_14/packages/ti/syslink/lib/syslink.a_debug(TraceDrv.o)
 .debug_abbrev  0x00003ab0      0x120 /home/user/ti-ezsdk_dm816x-evm_5_05_01_04/component-sources/syslink_2_20_00_14/packages/ti/syslink/lib/syslink.a_debug(CacheDrv.o)
 .debug_abbrev  0x00003bd0      0x206 /home/user/ti-ezsdk_dm816x-evm_5_05_01_04/component-sources/syslink_2_20_00_14/packages/ti/syslink/lib/syslink.a_debug(MemoryOS.o)
 .debug_abbrev  0x00003dd6      0x152 /home/user/ti-ezsdk_dm816x-evm_5_05_01_04/component-sources/syslink_2_20_00_14/packages/ti/syslink/lib/syslink.a_debug(OsalDrv.o)
 .debug_abbrev  0x00003f28      0x143 /home/user/ti-ezsdk_dm816x-evm_5_05_01_04/component-sources/syslink_2_20_00_14/packages/ti/syslink/lib/syslink.a_debug(OsalMutex.o)
 .debug_abbrev  0x0000406b       0xb0 /home/user/ti-ezsdk_dm816x-evm_5_05_01_04/component-sources/syslink_2_20_00_14/packages/ti/syslink/lib/syslink.a_debug(OsalPrint.o)
 .debug_abbrev  0x0000411b      0x1ec /home/user/ti-ezsdk_dm816x-evm_5_05_01_04/component-sources/syslink_2_20_00_14/packages/ti/syslink/lib/syslink.a_debug(ProcMgr.o)
 .debug_abbrev  0x00004307       0xdd /home/user/ti-ezsdk_dm816x-evm_5_05_01_04/component-sources/syslink_2_20_00_14/packages/ti/syslink/lib/syslink.a_debug(ProcMgrDrvUsr.o)
 .debug_abbrev  0x000043e4      0x13c /home/user/ti-ezsdk_dm816x-evm_5_05_01_04/component-sources/syslink_2_20_00_14/packages/ti/syslink/lib/syslink.a_debug(FrameQ_common.o)
 .debug_abbrev  0x00004520      0x1d0 /home/user/ti-ezsdk_dm816x-evm_5_05_01_04/component-sources/syslink_2_20_00_14/packages/ti/syslink/lib/syslink.a_debug(ListMP.o)
 .debug_abbrev  0x000046f0      0x227 /home/user/ti-ezsdk_dm816x-evm_5_05_01_04/component-sources/syslink_2_20_00_14/packages/ti/syslink/lib/syslink.a_debug(MessageQ.o)
 .debug_abbrev  0x00004917      0x13f /home/user/ti-ezsdk_dm816x-evm_5_05_01_04/component-sources/syslink_2_20_00_14/packages/ti/syslink/lib/syslink.a_debug(ListMPDrv.o)
 .debug_abbrev  0x00004a56      0x187 /home/user/ti-ezsdk_dm816x-evm_5_05_01_04/component-sources/syslink_2_20_00_14/packages/ti/syslink/lib/syslink.a_debug(MessageQDrv.o)

.debug_line     0x00000000     0xb488
 *(.debug_line)
 .debug_line    0x00000000      0x109 bin/debug/obj/main_host.ov5T
 .debug_line    0x00000109      0x396 bin/debug/obj/App.ov5T
 .debug_line    0x0000049f      0x721 /home/user/ti-ezsdk_dm816x-evm_5_05_01_04/component-sources/syslink_2_20_00_14/packages/ti/syslink/lib/syslink.a_debug(SharedRegion.o)
 .debug_line    0x00000bc0      0x4da /home/user/ti-ezsdk_dm816x-evm_5_05_01_04/component-sources/syslink_2_20_00_14/packages/ti/syslink/lib/syslink.a_debug(Notify.o)
 .debug_line    0x0000109a      0x69c /home/user/ti-ezsdk_dm816x-evm_5_05_01_04/component-sources/syslink_2_20_00_14/packages/ti/syslink/lib/syslink.a_debug(Ipc.o)
 .debug_line    0x00001736      0x5e4 /home/user/ti-ezsdk_dm816x-evm_5_05_01_04/component-sources/syslink_2_20_00_14/packages/ti/syslink/lib/syslink.a_debug(RingIO.o)
 .debug_line    0x00001d1a      0x270 /home/user/ti-ezsdk_dm816x-evm_5_05_01_04/component-sources/syslink_2_20_00_14/packages/ti/syslink/lib/syslink.a_debug(RingIOShm.o)
 .debug_line    0x00001f8a      0x88a /home/user/ti-ezsdk_dm816x-evm_5_05_01_04/component-sources/syslink_2_20_00_14/packages/ti/syslink/lib/syslink.a_debug(FrameQ.o)
 .debug_line    0x00002814      0x912 /home/user/ti-ezsdk_dm816x-evm_5_05_01_04/component-sources/syslink_2_20_00_14/packages/ti/syslink/lib/syslink.a_debug(FrameQBufMgr.o)
 .debug_line    0x00003126      0x763 /home/user/ti-ezsdk_dm816x-evm_5_05_01_04/component-sources/syslink_2_20_00_14/packages/ti/syslink/lib/syslink.a_debug(ClientNotifyMgr.o)
 .debug_line    0x00003889      0x4da /home/user/ti-ezsdk_dm816x-evm_5_05_01_04/component-sources/syslink_2_20_00_14/packages/ti/syslink/lib/syslink.a_debug(HeapMemMP.o)
 .debug_line    0x00003d63      0x4b3 /home/user/ti-ezsdk_dm816x-evm_5_05_01_04/component-sources/syslink_2_20_00_14/packages/ti/syslink/lib/syslink.a_debug(HeapBufMP.o)
 .debug_line    0x00004216      0x4ae /home/user/ti-ezsdk_dm816x-evm_5_05_01_04/component-sources/syslink_2_20_00_14/packages/ti/syslink/lib/syslink.a_debug(GateMP.o)
 .debug_line    0x000046c4      0x335 /home/user/ti-ezsdk_dm816x-evm_5_05_01_04/component-sources/syslink_2_20_00_14/packages/ti/syslink/lib/syslink.a_debug(SharedRegionDrv.o)
 .debug_line    0x000049f9      0x3e4 /home/user/ti-ezsdk_dm816x-evm_5_05_01_04/component-sources/syslink_2_20_00_14/packages/ti/syslink/lib/syslink.a_debug(NotifyDrvUsr.o)
 .debug_line    0x00004ddd      0x2fe /home/user/ti-ezsdk_dm816x-evm_5_05_01_04/component-sources/syslink_2_20_00_14/packages/ti/syslink/lib/syslink.a_debug(HeapBufMPDrv.o)
 .debug_line    0x000050db      0x38f /home/user/ti-ezsdk_dm816x-evm_5_05_01_04/component-sources/syslink_2_20_00_14/packages/ti/syslink/lib/syslink.a_debug(IpcDrv.o)
 .debug_line    0x0000546a      0x2d1 /home/user/ti-ezsdk_dm816x-evm_5_05_01_04/component-sources/syslink_2_20_00_14/packages/ti/syslink/lib/syslink.a_debug(FrameQDrv.o)
 .debug_line    0x0000573b      0x2f0 /home/user/ti-ezsdk_dm816x-evm_5_05_01_04/component-sources/syslink_2_20_00_14/packages/ti/syslink/lib/syslink.a_debug(FrameQBufMgrDrv.o)
 .debug_line    0x00005a2b      0x2fb /home/user/ti-ezsdk_dm816x-evm_5_05_01_04/component-sources/syslink_2_20_00_14/packages/ti/syslink/lib/syslink.a_debug(ClientNotifyMgrDrv.o)
 .debug_line    0x00005d26      0x2cc /home/user/ti-ezsdk_dm816x-evm_5_05_01_04/component-sources/syslink_2_20_00_14/packages/ti/syslink/lib/syslink.a_debug(RingIODrv.o)
 .debug_line    0x00005ff2      0x25e /home/user/ti-ezsdk_dm816x-evm_5_05_01_04/component-sources/syslink_2_20_00_14/packages/ti/syslink/lib/syslink.a_debug(RingIOShmDrv.o)
 .debug_line    0x00006250      0x2f4 /home/user/ti-ezsdk_dm816x-evm_5_05_01_04/component-sources/syslink_2_20_00_14/packages/ti/syslink/lib/syslink.a_debug(HeapMemMPDrv.o)
 .debug_line    0x00006544      0x2cc /home/user/ti-ezsdk_dm816x-evm_5_05_01_04/component-sources/syslink_2_20_00_14/packages/ti/syslink/lib/syslink.a_debug(GateMPDrv.o)
 .debug_line    0x00006810      0x208 /home/user/ti-ezsdk_dm816x-evm_5_05_01_04/component-sources/syslink_2_20_00_14/packages/ti/syslink/lib/syslink.a_debug(OsalProcess.o)
 .debug_line    0x00006a18      0x25e /home/user/ti-ezsdk_dm816x-evm_5_05_01_04/component-sources/syslink_2_20_00_14/packages/ti/syslink/lib/syslink.a_debug(GateMutex.o)
 .debug_line    0x00006c76      0x264 /home/user/ti-ezsdk_dm816x-evm_5_05_01_04/component-sources/syslink_2_20_00_14/packages/ti/syslink/lib/syslink.a_debug(Memory.o)
 .debug_line    0x00006eda      0x2a9 /home/user/ti-ezsdk_dm816x-evm_5_05_01_04/component-sources/syslink_2_20_00_14/packages/ti/syslink/lib/syslink.a_debug(List.o)
 .debug_line    0x00007183      0x17c /home/user/ti-ezsdk_dm816x-evm_5_05_01_04/component-sources/syslink_2_20_00_14/packages/ti/syslink/lib/syslink.a_debug(String.o)
 .debug_line    0x000072ff      0x260 /home/user/ti-ezsdk_dm816x-evm_5_05_01_04/component-sources/syslink_2_20_00_14/packages/ti/syslink/lib/syslink.a_debug(Trace.o)
 .debug_line    0x0000755f      0x4f7 /home/user/ti-ezsdk_dm816x-evm_5_05_01_04/component-sources/syslink_2_20_00_14/packages/ti/syslink/lib/syslink.a_debug(NameServer.o)
 .debug_line    0x00007a56      0x2ce /home/user/ti-ezsdk_dm816x-evm_5_05_01_04/component-sources/syslink_2_20_00_14/packages/ti/syslink/lib/syslink.a_debug(MultiProc.o)
 .debug_line    0x00007d24      0x214 /home/user/ti-ezsdk_dm816x-evm_5_05_01_04/component-sources/syslink_2_20_00_14/packages/ti/syslink/lib/syslink.a_debug(Gate.o)
 .debug_line    0x00007f38      0x3d4 /home/user/ti-ezsdk_dm816x-evm_5_05_01_04/component-sources/syslink_2_20_00_14/packages/ti/syslink/lib/syslink.a_debug(SysLink.o)
 .debug_line    0x0000830c      0x256 /home/user/ti-ezsdk_dm816x-evm_5_05_01_04/component-sources/syslink_2_20_00_14/packages/ti/syslink/lib/syslink.a_debug(Cache.o)
 .debug_line    0x00008562      0x2ce /home/user/ti-ezsdk_dm816x-evm_5_05_01_04/component-sources/syslink_2_20_00_14/packages/ti/syslink/lib/syslink.a_debug(NameServerDrv.o)
 .debug_line    0x00008830      0x25e /home/user/ti-ezsdk_dm816x-evm_5_05_01_04/component-sources/syslink_2_20_00_14/packages/ti/syslink/lib/syslink.a_debug(MultiProcDrv.o)
 .debug_line    0x00008a8e      0x21e /home/user/ti-ezsdk_dm816x-evm_5_05_01_04/component-sources/syslink_2_20_00_14/packages/ti/syslink/lib/syslink.a_debug(TraceDrv.o)
 .debug_line    0x00008cac      0x223 /home/user/ti-ezsdk_dm816x-evm_5_05_01_04/component-sources/syslink_2_20_00_14/packages/ti/syslink/lib/syslink.a_debug(CacheDrv.o)
 .debug_line    0x00008ecf      0x424 /home/user/ti-ezsdk_dm816x-evm_5_05_01_04/component-sources/syslink_2_20_00_14/packages/ti/syslink/lib/syslink.a_debug(MemoryOS.o)
 .debug_line    0x000092f3      0x290 /home/user/ti-ezsdk_dm816x-evm_5_05_01_04/component-sources/syslink_2_20_00_14/packages/ti/syslink/lib/syslink.a_debug(OsalDrv.o)
 .debug_line    0x00009583      0x2c7 /home/user/ti-ezsdk_dm816x-evm_5_05_01_04/component-sources/syslink_2_20_00_14/packages/ti/syslink/lib/syslink.a_debug(OsalMutex.o)
 .debug_line    0x0000984a      0x127 /home/user/ti-ezsdk_dm816x-evm_5_05_01_04/component-sources/syslink_2_20_00_14/packages/ti/syslink/lib/syslink.a_debug(OsalPrint.o)
 .debug_line    0x00009971      0x6f4 /home/user/ti-ezsdk_dm816x-evm_5_05_01_04/component-sources/syslink_2_20_00_14/packages/ti/syslink/lib/syslink.a_debug(ProcMgr.o)
 .debug_line    0x0000a065      0x262 /home/user/ti-ezsdk_dm816x-evm_5_05_01_04/component-sources/syslink_2_20_00_14/packages/ti/syslink/lib/syslink.a_debug(ProcMgrDrvUsr.o)
 .debug_line    0x0000a2c7      0x23f /home/user/ti-ezsdk_dm816x-evm_5_05_01_04/component-sources/syslink_2_20_00_14/packages/ti/syslink/lib/syslink.a_debug(FrameQ_common.o)
 .debug_line    0x0000a506      0x4d5 /home/user/ti-ezsdk_dm816x-evm_5_05_01_04/component-sources/syslink_2_20_00_14/packages/ti/syslink/lib/syslink.a_debug(ListMP.o)
 .debug_line    0x0000a9db      0x4db /home/user/ti-ezsdk_dm816x-evm_5_05_01_04/component-sources/syslink_2_20_00_14/packages/ti/syslink/lib/syslink.a_debug(MessageQ.o)
 .debug_line    0x0000aeb6      0x2d8 /home/user/ti-ezsdk_dm816x-evm_5_05_01_04/component-sources/syslink_2_20_00_14/packages/ti/syslink/lib/syslink.a_debug(ListMPDrv.o)
 .debug_line    0x0000b18e      0x2fa /home/user/ti-ezsdk_dm816x-evm_5_05_01_04/component-sources/syslink_2_20_00_14/packages/ti/syslink/lib/syslink.a_debug(MessageQDrv.o)

.debug_frame    0x00000000     0x39d0
 *(.debug_frame)
 .debug_frame   0x00000000       0x64 bin/debug/obj/main_host.ov5T
 .debug_frame   0x00000064       0x9c bin/debug/obj/App.ov5T
 .debug_frame   0x00000100      0x358 /home/user/ti-ezsdk_dm816x-evm_5_05_01_04/component-sources/syslink_2_20_00_14/packages/ti/syslink/lib/syslink.a_debug(SharedRegion.o)
 .debug_frame   0x00000458      0x1ec /home/user/ti-ezsdk_dm816x-evm_5_05_01_04/component-sources/syslink_2_20_00_14/packages/ti/syslink/lib/syslink.a_debug(Notify.o)
 .debug_frame   0x00000644      0x10c /home/user/ti-ezsdk_dm816x-evm_5_05_01_04/component-sources/syslink_2_20_00_14/packages/ti/syslink/lib/syslink.a_debug(Ipc.o)
 .debug_frame   0x00000750      0x358 /home/user/ti-ezsdk_dm816x-evm_5_05_01_04/component-sources/syslink_2_20_00_14/packages/ti/syslink/lib/syslink.a_debug(RingIO.o)
 .debug_frame   0x00000aa8       0x80 /home/user/ti-ezsdk_dm816x-evm_5_05_01_04/component-sources/syslink_2_20_00_14/packages/ti/syslink/lib/syslink.a_debug(RingIOShm.o)
 .debug_frame   0x00000b28      0x36c /home/user/ti-ezsdk_dm816x-evm_5_05_01_04/component-sources/syslink_2_20_00_14/packages/ti/syslink/lib/syslink.a_debug(FrameQ.o)
 .debug_frame   0x00000e94      0x430 /home/user/ti-ezsdk_dm816x-evm_5_05_01_04/component-sources/syslink_2_20_00_14/packages/ti/syslink/lib/syslink.a_debug(FrameQBufMgr.o)
 .debug_frame   0x000012c4      0x230 /home/user/ti-ezsdk_dm816x-evm_5_05_01_04/component-sources/syslink_2_20_00_14/packages/ti/syslink/lib/syslink.a_debug(ClientNotifyMgr.o)
 .debug_frame   0x000014f4      0x20c /home/user/ti-ezsdk_dm816x-evm_5_05_01_04/component-sources/syslink_2_20_00_14/packages/ti/syslink/lib/syslink.a_debug(HeapMemMP.o)
 .debug_frame   0x00001700      0x1f0 /home/user/ti-ezsdk_dm816x-evm_5_05_01_04/component-sources/syslink_2_20_00_14/packages/ti/syslink/lib/syslink.a_debug(HeapBufMP.o)
 .debug_frame   0x000018f0      0x264 /home/user/ti-ezsdk_dm816x-evm_5_05_01_04/component-sources/syslink_2_20_00_14/packages/ti/syslink/lib/syslink.a_debug(GateMP.o)
 .debug_frame   0x00001b54       0x64 /home/user/ti-ezsdk_dm816x-evm_5_05_01_04/component-sources/syslink_2_20_00_14/packages/ti/syslink/lib/syslink.a_debug(SharedRegionDrv.o)
 .debug_frame   0x00001bb8       0x88 /home/user/ti-ezsdk_dm816x-evm_5_05_01_04/component-sources/syslink_2_20_00_14/packages/ti/syslink/lib/syslink.a_debug(NotifyDrvUsr.o)
 .debug_frame   0x00001c40       0x68 /home/user/ti-ezsdk_dm816x-evm_5_05_01_04/component-sources/syslink_2_20_00_14/packages/ti/syslink/lib/syslink.a_debug(HeapBufMPDrv.o)
 .debug_frame   0x00001ca8       0x68 /home/user/ti-ezsdk_dm816x-evm_5_05_01_04/component-sources/syslink_2_20_00_14/packages/ti/syslink/lib/syslink.a_debug(IpcDrv.o)
 .debug_frame   0x00001d10       0x64 /home/user/ti-ezsdk_dm816x-evm_5_05_01_04/component-sources/syslink_2_20_00_14/packages/ti/syslink/lib/syslink.a_debug(FrameQDrv.o)
 .debug_frame   0x00001d74       0x64 /home/user/ti-ezsdk_dm816x-evm_5_05_01_04/component-sources/syslink_2_20_00_14/packages/ti/syslink/lib/syslink.a_debug(FrameQBufMgrDrv.o)
 .debug_frame   0x00001dd8       0x64 /home/user/ti-ezsdk_dm816x-evm_5_05_01_04/component-sources/syslink_2_20_00_14/packages/ti/syslink/lib/syslink.a_debug(ClientNotifyMgrDrv.o)
 .debug_frame   0x00001e3c       0x64 /home/user/ti-ezsdk_dm816x-evm_5_05_01_04/component-sources/syslink_2_20_00_14/packages/ti/syslink/lib/syslink.a_debug(RingIODrv.o)
 .debug_frame   0x00001ea0       0x64 /home/user/ti-ezsdk_dm816x-evm_5_05_01_04/component-sources/syslink_2_20_00_14/packages/ti/syslink/lib/syslink.a_debug(RingIOShmDrv.o)
 .debug_frame   0x00001f04       0x64 /home/user/ti-ezsdk_dm816x-evm_5_05_01_04/component-sources/syslink_2_20_00_14/packages/ti/syslink/lib/syslink.a_debug(HeapMemMPDrv.o)
 .debug_frame   0x00001f68       0x64 /home/user/ti-ezsdk_dm816x-evm_5_05_01_04/component-sources/syslink_2_20_00_14/packages/ti/syslink/lib/syslink.a_debug(GateMPDrv.o)
 .debug_frame   0x00001fcc       0x48 /home/user/ti-ezsdk_dm816x-evm_5_05_01_04/component-sources/syslink_2_20_00_14/packages/ti/syslink/lib/syslink.a_debug(OsalProcess.o)
 .debug_frame   0x00002014       0xb8 /home/user/ti-ezsdk_dm816x-evm_5_05_01_04/component-sources/syslink_2_20_00_14/packages/ti/syslink/lib/syslink.a_debug(GateMutex.o)
 .debug_frame   0x000020cc      0x15c /home/user/ti-ezsdk_dm816x-evm_5_05_01_04/component-sources/syslink_2_20_00_14/packages/ti/syslink/lib/syslink.a_debug(Memory.o)
 .debug_frame   0x00002228      0x1ec /home/user/ti-ezsdk_dm816x-evm_5_05_01_04/component-sources/syslink_2_20_00_14/packages/ti/syslink/lib/syslink.a_debug(List.o)
 .debug_frame   0x00002414       0xd8 /home/user/ti-ezsdk_dm816x-evm_5_05_01_04/component-sources/syslink_2_20_00_14/packages/ti/syslink/lib/syslink.a_debug(String.o)
 .debug_frame   0x000024ec      0x10c /home/user/ti-ezsdk_dm816x-evm_5_05_01_04/component-sources/syslink_2_20_00_14/packages/ti/syslink/lib/syslink.a_debug(Trace.o)
 .debug_frame   0x000025f8      0x224 /home/user/ti-ezsdk_dm816x-evm_5_05_01_04/component-sources/syslink_2_20_00_14/packages/ti/syslink/lib/syslink.a_debug(NameServer.o)
 .debug_frame   0x0000281c      0x10c /home/user/ti-ezsdk_dm816x-evm_5_05_01_04/component-sources/syslink_2_20_00_14/packages/ti/syslink/lib/syslink.a_debug(MultiProc.o)
 .debug_frame   0x00002928       0x80 /home/user/ti-ezsdk_dm816x-evm_5_05_01_04/component-sources/syslink_2_20_00_14/packages/ti/syslink/lib/syslink.a_debug(Gate.o)
 .debug_frame   0x000029a8       0x48 /home/user/ti-ezsdk_dm816x-evm_5_05_01_04/component-sources/syslink_2_20_00_14/packages/ti/syslink/lib/syslink.a_debug(SysLink.o)
 .debug_frame   0x000029f0       0x9c /home/user/ti-ezsdk_dm816x-evm_5_05_01_04/component-sources/syslink_2_20_00_14/packages/ti/syslink/lib/syslink.a_debug(Cache.o)
 .debug_frame   0x00002a8c       0x64 /home/user/ti-ezsdk_dm816x-evm_5_05_01_04/component-sources/syslink_2_20_00_14/packages/ti/syslink/lib/syslink.a_debug(NameServerDrv.o)
 .debug_frame   0x00002af0       0x64 /home/user/ti-ezsdk_dm816x-evm_5_05_01_04/component-sources/syslink_2_20_00_14/packages/ti/syslink/lib/syslink.a_debug(MultiProcDrv.o)
 .debug_frame   0x00002b54       0x2c /home/user/ti-ezsdk_dm816x-evm_5_05_01_04/component-sources/syslink_2_20_00_14/packages/ti/syslink/lib/syslink.a_debug(TraceDrv.o)
 .debug_frame   0x00002b80       0x2c /home/user/ti-ezsdk_dm816x-evm_5_05_01_04/component-sources/syslink_2_20_00_14/packages/ti/syslink/lib/syslink.a_debug(CacheDrv.o)
 .debug_frame   0x00002bac      0x1ec /home/user/ti-ezsdk_dm816x-evm_5_05_01_04/component-sources/syslink_2_20_00_14/packages/ti/syslink/lib/syslink.a_debug(MemoryOS.o)
 .debug_frame   0x00002d98       0x9c /home/user/ti-ezsdk_dm816x-evm_5_05_01_04/component-sources/syslink_2_20_00_14/packages/ti/syslink/lib/syslink.a_debug(OsalDrv.o)
 .debug_frame   0x00002e34       0x80 /home/user/ti-ezsdk_dm816x-evm_5_05_01_04/component-sources/syslink_2_20_00_14/packages/ti/syslink/lib/syslink.a_debug(OsalMutex.o)
 .debug_frame   0x00002eb4       0x38 /home/user/ti-ezsdk_dm816x-evm_5_05_01_04/component-sources/syslink_2_20_00_14/packages/ti/syslink/lib/syslink.a_debug(OsalPrint.o)
 .debug_frame   0x00002eec      0x33c /home/user/ti-ezsdk_dm816x-evm_5_05_01_04/component-sources/syslink_2_20_00_14/packages/ti/syslink/lib/syslink.a_debug(ProcMgr.o)
 .debug_frame   0x00003228       0x64 /home/user/ti-ezsdk_dm816x-evm_5_05_01_04/component-sources/syslink_2_20_00_14/packages/ti/syslink/lib/syslink.a_debug(ProcMgrDrvUsr.o)
 .debug_frame   0x0000328c      0x108 /home/user/ti-ezsdk_dm816x-evm_5_05_01_04/component-sources/syslink_2_20_00_14/packages/ti/syslink/lib/syslink.a_debug(FrameQ_common.o)
 .debug_frame   0x00003394      0x25c /home/user/ti-ezsdk_dm816x-evm_5_05_01_04/component-sources/syslink_2_20_00_14/packages/ti/syslink/lib/syslink.a_debug(ListMP.o)
 .debug_frame   0x000035f0      0x2b0 /home/user/ti-ezsdk_dm816x-evm_5_05_01_04/component-sources/syslink_2_20_00_14/packages/ti/syslink/lib/syslink.a_debug(MessageQ.o)
 .debug_frame   0x000038a0       0x64 /home/user/ti-ezsdk_dm816x-evm_5_05_01_04/component-sources/syslink_2_20_00_14/packages/ti/syslink/lib/syslink.a_debug(ListMPDrv.o)
 .debug_frame   0x00003904       0x68 /home/user/ti-ezsdk_dm816x-evm_5_05_01_04/component-sources/syslink_2_20_00_14/packages/ti/syslink/lib/syslink.a_debug(MessageQDrv.o)
 .debug_frame   0x0000396c       0x44 /home/user/CodeSourcery/Sourcery_G++_Lite/bin/../arm-none-linux-gnueabi/libc/usr/lib/libc_nonshared.a(elf-init.oS)
 .debug_frame   0x000039b0       0x20 /home/user/CodeSourcery/Sourcery_G++_Lite/bin/../lib/gcc/arm-none-linux-gnueabi/4.3.3/libgcc.a(_udivsi3.o)

.debug_str      0x00000000     0x8674
 *(.debug_str)
 .debug_str     0x00000000      0x155 bin/debug/obj/main_host.ov5T
                                0x1a7 (size before relaxing)
 .debug_str     0x00000155      0x3ce bin/debug/obj/App.ov5T
                                0x507 (size before relaxing)
 .debug_str     0x00000523      0x77d /home/user/ti-ezsdk_dm816x-evm_5_05_01_04/component-sources/syslink_2_20_00_14/packages/ti/syslink/lib/syslink.a_debug(SharedRegion.o)
                                0xa31 (size before relaxing)
 .debug_str     0x00000ca0      0x604 /home/user/ti-ezsdk_dm816x-evm_5_05_01_04/component-sources/syslink_2_20_00_14/packages/ti/syslink/lib/syslink.a_debug(Notify.o)
                                0x7d2 (size before relaxing)
 .debug_str     0x000012a4      0x7a2 /home/user/ti-ezsdk_dm816x-evm_5_05_01_04/component-sources/syslink_2_20_00_14/packages/ti/syslink/lib/syslink.a_debug(Ipc.o)
                                0xa8b (size before relaxing)
 .debug_str     0x00001a46      0xa17 /home/user/ti-ezsdk_dm816x-evm_5_05_01_04/component-sources/syslink_2_20_00_14/packages/ti/syslink/lib/syslink.a_debug(RingIO.o)
                                0xe87 (size before relaxing)
 .debug_str     0x0000245d      0x11f /home/user/ti-ezsdk_dm816x-evm_5_05_01_04/component-sources/syslink_2_20_00_14/packages/ti/syslink/lib/syslink.a_debug(RingIOShm.o)
                                0x2a6 (size before relaxing)
 .debug_str     0x0000257c      0xc68 /home/user/ti-ezsdk_dm816x-evm_5_05_01_04/component-sources/syslink_2_20_00_14/packages/ti/syslink/lib/syslink.a_debug(FrameQ.o)
                               0x145f (size before relaxing)
 .debug_str     0x000031e4      0x9b5 /home/user/ti-ezsdk_dm816x-evm_5_05_01_04/component-sources/syslink_2_20_00_14/packages/ti/syslink/lib/syslink.a_debug(FrameQBufMgr.o)
                               0x170a (size before relaxing)
 .debug_str     0x00003b99      0x760 /home/user/ti-ezsdk_dm816x-evm_5_05_01_04/component-sources/syslink_2_20_00_14/packages/ti/syslink/lib/syslink.a_debug(ClientNotifyMgr.o)
                                0xd1f (size before relaxing)
 .debug_str     0x000042f9      0x2c8 /home/user/ti-ezsdk_dm816x-evm_5_05_01_04/component-sources/syslink_2_20_00_14/packages/ti/syslink/lib/syslink.a_debug(HeapMemMP.o)
                                0x69c (size before relaxing)
 .debug_str     0x000045c1      0x2b8 /home/user/ti-ezsdk_dm816x-evm_5_05_01_04/component-sources/syslink_2_20_00_14/packages/ti/syslink/lib/syslink.a_debug(HeapBufMP.o)
                                0x6c5 (size before relaxing)
 .debug_str     0x00004879      0x2a0 /home/user/ti-ezsdk_dm816x-evm_5_05_01_04/component-sources/syslink_2_20_00_14/packages/ti/syslink/lib/syslink.a_debug(GateMP.o)
                                0x711 (size before relaxing)
 .debug_str     0x00004b19       0xff /home/user/ti-ezsdk_dm816x-evm_5_05_01_04/component-sources/syslink_2_20_00_14/packages/ti/syslink/lib/syslink.a_debug(SharedRegionDrv.o)
                                0x540 (size before relaxing)
 .debug_str     0x00004c18      0x237 /home/user/ti-ezsdk_dm816x-evm_5_05_01_04/component-sources/syslink_2_20_00_14/packages/ti/syslink/lib/syslink.a_debug(NotifyDrvUsr.o)
                                0x3fa (size before relaxing)
 .debug_str     0x00004e4f       0xe7 /home/user/ti-ezsdk_dm816x-evm_5_05_01_04/component-sources/syslink_2_20_00_14/packages/ti/syslink/lib/syslink.a_debug(HeapBufMPDrv.o)
                                0x459 (size before relaxing)
 .debug_str     0x00004f36       0xc3 /home/user/ti-ezsdk_dm816x-evm_5_05_01_04/component-sources/syslink_2_20_00_14/packages/ti/syslink/lib/syslink.a_debug(IpcDrv.o)
                                0x295 (size before relaxing)
 .debug_str     0x00004ff9       0xd5 /home/user/ti-ezsdk_dm816x-evm_5_05_01_04/component-sources/syslink_2_20_00_14/packages/ti/syslink/lib/syslink.a_debug(FrameQDrv.o)
                                0x6e0 (size before relaxing)
 .debug_str     0x000050ce       0xf9 /home/user/ti-ezsdk_dm816x-evm_5_05_01_04/component-sources/syslink_2_20_00_14/packages/ti/syslink/lib/syslink.a_debug(FrameQBufMgrDrv.o)
                                0x860 (size before relaxing)
 .debug_str     0x000051c7      0x10b /home/user/ti-ezsdk_dm816x-evm_5_05_01_04/component-sources/syslink_2_20_00_14/packages/ti/syslink/lib/syslink.a_debug(ClientNotifyMgrDrv.o)
                                0x55a (size before relaxing)
 .debug_str     0x000052d2       0xd5 /home/user/ti-ezsdk_dm816x-evm_5_05_01_04/component-sources/syslink_2_20_00_14/packages/ti/syslink/lib/syslink.a_debug(RingIODrv.o)
                                0x71e (size before relaxing)
 .debug_str     0x000053a7       0xe7 /home/user/ti-ezsdk_dm816x-evm_5_05_01_04/component-sources/syslink_2_20_00_14/packages/ti/syslink/lib/syslink.a_debug(RingIOShmDrv.o)
                                0x276 (size before relaxing)
 .debug_str     0x0000548e       0xe7 /home/user/ti-ezsdk_dm816x-evm_5_05_01_04/component-sources/syslink_2_20_00_14/packages/ti/syslink/lib/syslink.a_debug(HeapMemMPDrv.o)
                                0x428 (size before relaxing)
 .debug_str     0x00005575       0xd5 /home/user/ti-ezsdk_dm816x-evm_5_05_01_04/component-sources/syslink_2_20_00_14/packages/ti/syslink/lib/syslink.a_debug(GateMPDrv.o)
                                0x4ed (size before relaxing)
 .debug_str     0x0000564a       0xab /home/user/ti-ezsdk_dm816x-evm_5_05_01_04/component-sources/syslink_2_20_00_14/packages/ti/syslink/lib/syslink.a_debug(OsalProcess.o)
                                0x17a (size before relaxing)
 .debug_str     0x000056f5      0x1a8 /home/user/ti-ezsdk_dm816x-evm_5_05_01_04/component-sources/syslink_2_20_00_14/packages/ti/syslink/lib/syslink.a_debug(GateMutex.o)
                                0x332 (size before relaxing)
 .debug_str     0x0000589d      0x156 /home/user/ti-ezsdk_dm816x-evm_5_05_01_04/component-sources/syslink_2_20_00_14/packages/ti/syslink/lib/syslink.a_debug(Memory.o)
                                0x3d2 (size before relaxing)
 .debug_str     0x000059f3      0x193 /home/user/ti-ezsdk_dm816x-evm_5_05_01_04/component-sources/syslink_2_20_00_14/packages/ti/syslink/lib/syslink.a_debug(List.o)
                                0x301 (size before relaxing)
 .debug_str     0x00005b86      0x11f /home/user/ti-ezsdk_dm816x-evm_5_05_01_04/component-sources/syslink_2_20_00_14/packages/ti/syslink/lib/syslink.a_debug(String.o)
                                0x1f7 (size before relaxing)
 .debug_str     0x00005ca5      0x244 /home/user/ti-ezsdk_dm816x-evm_5_05_01_04/component-sources/syslink_2_20_00_14/packages/ti/syslink/lib/syslink.a_debug(Trace.o)
                                0x37e (size before relaxing)
 .debug_str     0x00005ee9      0x2f7 /home/user/ti-ezsdk_dm816x-evm_5_05_01_04/component-sources/syslink_2_20_00_14/packages/ti/syslink/lib/syslink.a_debug(NameServer.o)
                                0x53b (size before relaxing)
 .debug_str     0x000061e0      0x1a4 /home/user/ti-ezsdk_dm816x-evm_5_05_01_04/component-sources/syslink_2_20_00_14/packages/ti/syslink/lib/syslink.a_debug(MultiProc.o)
                                0x364 (size before relaxing)
 .debug_str     0x00006384       0xd9 /home/user/ti-ezsdk_dm816x-evm_5_05_01_04/component-sources/syslink_2_20_00_14/packages/ti/syslink/lib/syslink.a_debug(Gate.o)
                                0x2b2 (size before relaxing)
 .debug_str     0x0000645d       0x9a /home/user/ti-ezsdk_dm816x-evm_5_05_01_04/component-sources/syslink_2_20_00_14/packages/ti/syslink/lib/syslink.a_debug(SysLink.o)
                                0x7c5 (size before relaxing)
 .debug_str     0x000064f7      0x138 /home/user/ti-ezsdk_dm816x-evm_5_05_01_04/component-sources/syslink_2_20_00_14/packages/ti/syslink/lib/syslink.a_debug(Cache.o)
                                0x268 (size before relaxing)
 .debug_str     0x0000662f       0xef /home/user/ti-ezsdk_dm816x-evm_5_05_01_04/component-sources/syslink_2_20_00_14/packages/ti/syslink/lib/syslink.a_debug(NameServerDrv.o)
                                0x3a2 (size before relaxing)
 .debug_str     0x0000671e       0xe9 /home/user/ti-ezsdk_dm816x-evm_5_05_01_04/component-sources/syslink_2_20_00_14/packages/ti/syslink/lib/syslink.a_debug(MultiProcDrv.o)
                                0x286 (size before relaxing)
 .debug_str     0x00006807       0x97 /home/user/ti-ezsdk_dm816x-evm_5_05_01_04/component-sources/syslink_2_20_00_14/packages/ti/syslink/lib/syslink.a_debug(TraceDrv.o)
                                0x244 (size before relaxing)
 .debug_str     0x0000689e       0x92 /home/user/ti-ezsdk_dm816x-evm_5_05_01_04/component-sources/syslink_2_20_00_14/packages/ti/syslink/lib/syslink.a_debug(CacheDrv.o)
                                0x241 (size before relaxing)
 .debug_str     0x00006930      0x207 /home/user/ti-ezsdk_dm816x-evm_5_05_01_04/component-sources/syslink_2_20_00_14/packages/ti/syslink/lib/syslink.a_debug(MemoryOS.o)
                                0x5da (size before relaxing)
 .debug_str     0x00006b37      0x130 /home/user/ti-ezsdk_dm816x-evm_5_05_01_04/component-sources/syslink_2_20_00_14/packages/ti/syslink/lib/syslink.a_debug(OsalDrv.o)
                                0x2de (size before relaxing)
 .debug_str     0x00006c67      0x104 /home/user/ti-ezsdk_dm816x-evm_5_05_01_04/component-sources/syslink_2_20_00_14/packages/ti/syslink/lib/syslink.a_debug(OsalMutex.o)
                                0x329 (size before relaxing)
 .debug_str     0x00006d6b       0xba /home/user/ti-ezsdk_dm816x-evm_5_05_01_04/component-sources/syslink_2_20_00_14/packages/ti/syslink/lib/syslink.a_debug(OsalPrint.o)
                                0x17c (size before relaxing)
 .debug_str     0x00006e25      0xd71 /home/user/ti-ezsdk_dm816x-evm_5_05_01_04/component-sources/syslink_2_20_00_14/packages/ti/syslink/lib/syslink.a_debug(ProcMgr.o)
                               0x10de (size before relaxing)
 .debug_str     0x00007b96       0xfe /home/user/ti-ezsdk_dm816x-evm_5_05_01_04/component-sources/syslink_2_20_00_14/packages/ti/syslink/lib/syslink.a_debug(ProcMgrDrvUsr.o)
                                0x23e (size before relaxing)
 .debug_str     0x00007c94      0x1c7 /home/user/ti-ezsdk_dm816x-evm_5_05_01_04/component-sources/syslink_2_20_00_14/packages/ti/syslink/lib/syslink.a_debug(FrameQ_common.o)
                                0x450 (size before relaxing)
 .debug_str     0x00007e5b      0x282 /home/user/ti-ezsdk_dm816x-evm_5_05_01_04/component-sources/syslink_2_20_00_14/packages/ti/syslink/lib/syslink.a_debug(ListMP.o)
                                0x583 (size before relaxing)
 .debug_str     0x000080dd      0x3e1 /home/user/ti-ezsdk_dm816x-evm_5_05_01_04/component-sources/syslink_2_20_00_14/packages/ti/syslink/lib/syslink.a_debug(MessageQ.o)
                                0x7a1 (size before relaxing)
 .debug_str     0x000084be       0xd5 /home/user/ti-ezsdk_dm816x-evm_5_05_01_04/component-sources/syslink_2_20_00_14/packages/ti/syslink/lib/syslink.a_debug(ListMPDrv.o)
                                0x3ca (size before relaxing)
 .debug_str     0x00008593       0xe1 /home/user/ti-ezsdk_dm816x-evm_5_05_01_04/component-sources/syslink_2_20_00_14/packages/ti/syslink/lib/syslink.a_debug(MessageQDrv.o)
                                0x4b7 (size before relaxing)

.debug_loc      0x00000000     0x532a
 *(.debug_loc)
 .debug_loc     0x00000000       0x81 bin/debug/obj/main_host.ov5T
 .debug_loc     0x00000081       0xd7 bin/debug/obj/App.ov5T
 .debug_loc     0x00000158      0x50a /home/user/ti-ezsdk_dm816x-evm_5_05_01_04/component-sources/syslink_2_20_00_14/packages/ti/syslink/lib/syslink.a_debug(SharedRegion.o)
 .debug_loc     0x00000662      0x2db /home/user/ti-ezsdk_dm816x-evm_5_05_01_04/component-sources/syslink_2_20_00_14/packages/ti/syslink/lib/syslink.a_debug(Notify.o)
 .debug_loc     0x0000093d      0x183 /home/user/ti-ezsdk_dm816x-evm_5_05_01_04/component-sources/syslink_2_20_00_14/packages/ti/syslink/lib/syslink.a_debug(Ipc.o)
 .debug_loc     0x00000ac0      0x50a /home/user/ti-ezsdk_dm816x-evm_5_05_01_04/component-sources/syslink_2_20_00_14/packages/ti/syslink/lib/syslink.a_debug(RingIO.o)
 .debug_loc     0x00000fca       0xac /home/user/ti-ezsdk_dm816x-evm_5_05_01_04/component-sources/syslink_2_20_00_14/packages/ti/syslink/lib/syslink.a_debug(RingIOShm.o)
 .debug_loc     0x00001076      0x50a /home/user/ti-ezsdk_dm816x-evm_5_05_01_04/component-sources/syslink_2_20_00_14/packages/ti/syslink/lib/syslink.a_debug(FrameQ.o)
 .debug_loc     0x00001580      0x637 /home/user/ti-ezsdk_dm816x-evm_5_05_01_04/component-sources/syslink_2_20_00_14/packages/ti/syslink/lib/syslink.a_debug(FrameQBufMgr.o)
 .debug_loc     0x00001bb7      0x331 /home/user/ti-ezsdk_dm816x-evm_5_05_01_04/component-sources/syslink_2_20_00_14/packages/ti/syslink/lib/syslink.a_debug(ClientNotifyMgr.o)
 .debug_loc     0x00001ee8      0x312 /home/user/ti-ezsdk_dm816x-evm_5_05_01_04/component-sources/syslink_2_20_00_14/packages/ti/syslink/lib/syslink.a_debug(HeapMemMP.o)
 .debug_loc     0x000021fa      0x2e7 /home/user/ti-ezsdk_dm816x-evm_5_05_01_04/component-sources/syslink_2_20_00_14/packages/ti/syslink/lib/syslink.a_debug(HeapBufMP.o)
 .debug_loc     0x000024e1      0x387 /home/user/ti-ezsdk_dm816x-evm_5_05_01_04/component-sources/syslink_2_20_00_14/packages/ti/syslink/lib/syslink.a_debug(GateMP.o)
 .debug_loc     0x00002868       0x81 /home/user/ti-ezsdk_dm816x-evm_5_05_01_04/component-sources/syslink_2_20_00_14/packages/ti/syslink/lib/syslink.a_debug(SharedRegionDrv.o)
 .debug_loc     0x000028e9       0xac /home/user/ti-ezsdk_dm816x-evm_5_05_01_04/component-sources/syslink_2_20_00_14/packages/ti/syslink/lib/syslink.a_debug(NotifyDrvUsr.o)
 .debug_loc     0x00002995       0x81 /home/user/ti-ezsdk_dm816x-evm_5_05_01_04/component-sources/syslink_2_20_00_14/packages/ti/syslink/lib/syslink.a_debug(HeapBufMPDrv.o)
 .debug_loc     0x00002a16       0x81 /home/user/ti-ezsdk_dm816x-evm_5_05_01_04/component-sources/syslink_2_20_00_14/packages/ti/syslink/lib/syslink.a_debug(IpcDrv.o)
 .debug_loc     0x00002a97       0x81 /home/user/ti-ezsdk_dm816x-evm_5_05_01_04/component-sources/syslink_2_20_00_14/packages/ti/syslink/lib/syslink.a_debug(FrameQDrv.o)
 .debug_loc     0x00002b18       0x81 /home/user/ti-ezsdk_dm816x-evm_5_05_01_04/component-sources/syslink_2_20_00_14/packages/ti/syslink/lib/syslink.a_debug(FrameQBufMgrDrv.o)
 .debug_loc     0x00002b99       0x81 /home/user/ti-ezsdk_dm816x-evm_5_05_01_04/component-sources/syslink_2_20_00_14/packages/ti/syslink/lib/syslink.a_debug(ClientNotifyMgrDrv.o)
 .debug_loc     0x00002c1a       0x81 /home/user/ti-ezsdk_dm816x-evm_5_05_01_04/component-sources/syslink_2_20_00_14/packages/ti/syslink/lib/syslink.a_debug(RingIODrv.o)
 .debug_loc     0x00002c9b       0x81 /home/user/ti-ezsdk_dm816x-evm_5_05_01_04/component-sources/syslink_2_20_00_14/packages/ti/syslink/lib/syslink.a_debug(RingIOShmDrv.o)
 .debug_loc     0x00002d1c       0x81 /home/user/ti-ezsdk_dm816x-evm_5_05_01_04/component-sources/syslink_2_20_00_14/packages/ti/syslink/lib/syslink.a_debug(HeapMemMPDrv.o)
 .debug_loc     0x00002d9d       0x81 /home/user/ti-ezsdk_dm816x-evm_5_05_01_04/component-sources/syslink_2_20_00_14/packages/ti/syslink/lib/syslink.a_debug(GateMPDrv.o)
 .debug_loc     0x00002e1e       0x56 /home/user/ti-ezsdk_dm816x-evm_5_05_01_04/component-sources/syslink_2_20_00_14/packages/ti/syslink/lib/syslink.a_debug(OsalProcess.o)
 .debug_loc     0x00002e74      0x102 /home/user/ti-ezsdk_dm816x-evm_5_05_01_04/component-sources/syslink_2_20_00_14/packages/ti/syslink/lib/syslink.a_debug(GateMutex.o)
 .debug_loc     0x00002f76      0x204 /home/user/ti-ezsdk_dm816x-evm_5_05_01_04/component-sources/syslink_2_20_00_14/packages/ti/syslink/lib/syslink.a_debug(Memory.o)
 .debug_loc     0x0000317a      0x2db /home/user/ti-ezsdk_dm816x-evm_5_05_01_04/component-sources/syslink_2_20_00_14/packages/ti/syslink/lib/syslink.a_debug(List.o)
 .debug_loc     0x00003455      0x158 /home/user/ti-ezsdk_dm816x-evm_5_05_01_04/component-sources/syslink_2_20_00_14/packages/ti/syslink/lib/syslink.a_debug(String.o)
 .debug_loc     0x000035ad      0x183 /home/user/ti-ezsdk_dm816x-evm_5_05_01_04/component-sources/syslink_2_20_00_14/packages/ti/syslink/lib/syslink.a_debug(Trace.o)
 .debug_loc     0x00003730      0x331 /home/user/ti-ezsdk_dm816x-evm_5_05_01_04/component-sources/syslink_2_20_00_14/packages/ti/syslink/lib/syslink.a_debug(NameServer.o)
 .debug_loc     0x00003a61      0x183 /home/user/ti-ezsdk_dm816x-evm_5_05_01_04/component-sources/syslink_2_20_00_14/packages/ti/syslink/lib/syslink.a_debug(MultiProc.o)
 .debug_loc     0x00003be4       0xac /home/user/ti-ezsdk_dm816x-evm_5_05_01_04/component-sources/syslink_2_20_00_14/packages/ti/syslink/lib/syslink.a_debug(Gate.o)
 .debug_loc     0x00003c90       0x56 /home/user/ti-ezsdk_dm816x-evm_5_05_01_04/component-sources/syslink_2_20_00_14/packages/ti/syslink/lib/syslink.a_debug(SysLink.o)
 .debug_loc     0x00003ce6       0xd7 /home/user/ti-ezsdk_dm816x-evm_5_05_01_04/component-sources/syslink_2_20_00_14/packages/ti/syslink/lib/syslink.a_debug(Cache.o)
 .debug_loc     0x00003dbd       0x81 /home/user/ti-ezsdk_dm816x-evm_5_05_01_04/component-sources/syslink_2_20_00_14/packages/ti/syslink/lib/syslink.a_debug(NameServerDrv.o)
 .debug_loc     0x00003e3e       0x81 /home/user/ti-ezsdk_dm816x-evm_5_05_01_04/component-sources/syslink_2_20_00_14/packages/ti/syslink/lib/syslink.a_debug(MultiProcDrv.o)
 .debug_loc     0x00003ebf       0x2b /home/user/ti-ezsdk_dm816x-evm_5_05_01_04/component-sources/syslink_2_20_00_14/packages/ti/syslink/lib/syslink.a_debug(TraceDrv.o)
 .debug_loc     0x00003eea       0x2b /home/user/ti-ezsdk_dm816x-evm_5_05_01_04/component-sources/syslink_2_20_00_14/packages/ti/syslink/lib/syslink.a_debug(CacheDrv.o)
 .debug_loc     0x00003f15      0x2db /home/user/ti-ezsdk_dm816x-evm_5_05_01_04/component-sources/syslink_2_20_00_14/packages/ti/syslink/lib/syslink.a_debug(MemoryOS.o)
 .debug_loc     0x000041f0       0xd7 /home/user/ti-ezsdk_dm816x-evm_5_05_01_04/component-sources/syslink_2_20_00_14/packages/ti/syslink/lib/syslink.a_debug(OsalDrv.o)
 .debug_loc     0x000042c7       0xac /home/user/ti-ezsdk_dm816x-evm_5_05_01_04/component-sources/syslink_2_20_00_14/packages/ti/syslink/lib/syslink.a_debug(OsalMutex.o)
 .debug_loc     0x00004373       0x37 /home/user/ti-ezsdk_dm816x-evm_5_05_01_04/component-sources/syslink_2_20_00_14/packages/ti/syslink/lib/syslink.a_debug(OsalPrint.o)
 .debug_loc     0x000043aa      0x4df /home/user/ti-ezsdk_dm816x-evm_5_05_01_04/component-sources/syslink_2_20_00_14/packages/ti/syslink/lib/syslink.a_debug(ProcMgr.o)
 .debug_loc     0x00004889       0x81 /home/user/ti-ezsdk_dm816x-evm_5_05_01_04/component-sources/syslink_2_20_00_14/packages/ti/syslink/lib/syslink.a_debug(ProcMgrDrvUsr.o)
 .debug_loc     0x0000490a      0x183 /home/user/ti-ezsdk_dm816x-evm_5_05_01_04/component-sources/syslink_2_20_00_14/packages/ti/syslink/lib/syslink.a_debug(FrameQ_common.o)
 .debug_loc     0x00004a8d      0x393 /home/user/ti-ezsdk_dm816x-evm_5_05_01_04/component-sources/syslink_2_20_00_14/packages/ti/syslink/lib/syslink.a_debug(ListMP.o)
 .debug_loc     0x00004e20      0x408 /home/user/ti-ezsdk_dm816x-evm_5_05_01_04/component-sources/syslink_2_20_00_14/packages/ti/syslink/lib/syslink.a_debug(MessageQ.o)
 .debug_loc     0x00005228       0x81 /home/user/ti-ezsdk_dm816x-evm_5_05_01_04/component-sources/syslink_2_20_00_14/packages/ti/syslink/lib/syslink.a_debug(ListMPDrv.o)
 .debug_loc     0x000052a9       0x81 /home/user/ti-ezsdk_dm816x-evm_5_05_01_04/component-sources/syslink_2_20_00_14/packages/ti/syslink/lib/syslink.a_debug(MessageQDrv.o)

.debug_macinfo
 *(.debug_macinfo)

.debug_weaknames
 *(.debug_weaknames)

.debug_funcnames
 *(.debug_funcnames)

.debug_typenames
 *(.debug_typenames)

.debug_varnames
 *(.debug_varnames)

.debug_pubtypes
 *(.debug_pubtypes)

.debug_ranges
 *(.debug_ranges)

.gnu.attributes
 *(.gnu.attributes)

.note.gnu.arm.ident
 *(.note.gnu.arm.ident)

/DISCARD/
 *(.note.GNU-stack)
 *(.gnu_debuglink)
OUTPUT(bin/debug/app_host elf32-littlearm)
